ARM GAS  /tmp/ccnQliq1.s 			page 1


   1              		.cpu cortex-m0plus
   2              		.fpu softvfp
   3              		.eabi_attribute 20, 1
   4              		.eabi_attribute 21, 1
   5              		.eabi_attribute 23, 3
   6              		.eabi_attribute 24, 1
   7              		.eabi_attribute 25, 1
   8              		.eabi_attribute 26, 1
   9              		.eabi_attribute 30, 4
  10              		.eabi_attribute 34, 0
  11              		.eabi_attribute 18, 4
  12              		.code	16
  13              		.file	"adc.c"
  14              		.text
  15              	.Ltext0:
  16              		.cfi_sections	.debug_frame
  17              		.align	1
  18              		.global	setup_ADC
  19              		.code	16
  20              		.thumb_func
  21              		.type	setup_ADC, %function
  22              	setup_ADC:
  23              	.LFB33:
  24              		.file 1 "src/adc.c"
   1:src/adc.c     **** #include "MKE04Z4.h"
   2:src/adc.c     **** #include "pit.h"
   3:src/adc.c     **** #include <stdint.h>
   4:src/adc.c     **** 
   5:src/adc.c     **** 
   6:src/adc.c     **** /**
   7:src/adc.c     ****  * Sets up the ADC module
   8:src/adc.c     ****  */
   9:src/adc.c     **** void setup_ADC(void)
  10:src/adc.c     **** {
  25              		.loc 1 10 0
  26              		.cfi_startproc
  11:src/adc.c     ****   SIM->SCGC |= SIM_SCGC_ADC_MASK;    //Turn on the clock for the ADC
  27              		.loc 1 11 0
  28 0000 8021     		mov	r1, #128
  29 0002 074A     		ldr	r2, .L2
  30 0004 8905     		lsl	r1, r1, #22
  31 0006 D368     		ldr	r3, [r2, #12]
  12:src/adc.c     **** 
  13:src/adc.c     ****   ADC->APCTL1 |= ADC_APCTL1_ADPC(8); //Disable I/O on the ADC pin.
  14:src/adc.c     **** 
  15:src/adc.c     ****   ADC->SC3 = ADC_SC3_ADICLK(1) |     //Bus clock / 2
  16:src/adc.c     ****              ADC_SC3_ADIV(3);        //Further divided by 8
  17:src/adc.c     **** 
  18:src/adc.c     ****   ADC->SC2  |= ADC_SC2_REFSEL(0);    //Default voltage reference
  19:src/adc.c     ****                                      //Software triggered (default)
  20:src/adc.c     **** }
  32              		.loc 1 20 0
  33              		@ sp needed
  11:src/adc.c     ****   SIM->SCGC |= SIM_SCGC_ADC_MASK;    //Turn on the clock for the ADC
  34              		.loc 1 11 0
  35 0008 0B43     		orr	r3, r1
  13:src/adc.c     **** 
ARM GAS  /tmp/ccnQliq1.s 			page 2


  36              		.loc 1 13 0
  37 000a 0821     		mov	r1, #8
  11:src/adc.c     ****   SIM->SCGC |= SIM_SCGC_ADC_MASK;    //Turn on the clock for the ADC
  38              		.loc 1 11 0
  39 000c D360     		str	r3, [r2, #12]
  13:src/adc.c     **** 
  40              		.loc 1 13 0
  41 000e 054B     		ldr	r3, .L2+4
  42 0010 9A69     		ldr	r2, [r3, #24]
  43 0012 0A43     		orr	r2, r1
  44 0014 9A61     		str	r2, [r3, #24]
  15:src/adc.c     ****              ADC_SC3_ADIV(3);        //Further divided by 8
  45              		.loc 1 15 0
  46 0016 6122     		mov	r2, #97
  47 0018 9A60     		str	r2, [r3, #8]
  18:src/adc.c     ****                                      //Software triggered (default)
  48              		.loc 1 18 0
  49 001a 5A68     		ldr	r2, [r3, #4]
  50 001c 5A60     		str	r2, [r3, #4]
  51              		.loc 1 20 0
  52 001e 7047     		bx	lr
  53              	.L3:
  54              		.align	2
  55              	.L2:
  56 0020 00800440 		.word	1074036736
  57 0024 00B00340 		.word	1073983488
  58              		.cfi_endproc
  59              	.LFE33:
  60              		.size	setup_ADC, .-setup_ADC
  61              		.align	1
  62              		.global	get_ADC
  63              		.code	16
  64              		.thumb_func
  65              		.type	get_ADC, %function
  66              	get_ADC:
  67              	.LFB34:
  21:src/adc.c     **** 
  22:src/adc.c     **** 
  23:src/adc.c     **** 
  24:src/adc.c     **** 
  25:src/adc.c     **** uint8_t get_ADC(){
  68              		.loc 1 25 0
  69              		.cfi_startproc
  26:src/adc.c     ****   //Set channel: AD8 == PTC0 & triggers the conversion
  27:src/adc.c     ****   ADC->SC1 = ADC_SC1_ADCH(8);
  70              		.loc 1 27 0
  71 0028 0822     		mov	r2, #8
  72 002a 044B     		ldr	r3, .L8
  73 002c 1A60     		str	r2, [r3]
  74              	.L5:
  28:src/adc.c     ****   while ((ADC->SC1 & ADC_SC1_COCO_MASK) != ADC_SC1_COCO_MASK);
  75              		.loc 1 28 0 discriminator 1
  76 002e 1A68     		ldr	r2, [r3]
  77 0030 1206     		lsl	r2, r2, #24
  78 0032 FCD5     		bpl	.L5
  29:src/adc.c     ****   return ADC->R;
  79              		.loc 1 29 0
ARM GAS  /tmp/ccnQliq1.s 			page 3


  80 0034 014B     		ldr	r3, .L8
  30:src/adc.c     **** }
  81              		.loc 1 30 0
  82              		@ sp needed
  29:src/adc.c     ****   return ADC->R;
  83              		.loc 1 29 0
  84 0036 1869     		ldr	r0, [r3, #16]
  85 0038 C0B2     		uxtb	r0, r0
  86              		.loc 1 30 0
  87 003a 7047     		bx	lr
  88              	.L9:
  89              		.align	2
  90              	.L8:
  91 003c 00B00340 		.word	1073983488
  92              		.cfi_endproc
  93              	.LFE34:
  94              		.size	get_ADC, .-get_ADC
  95              	.Letext0:
  96              		.file 2 "/usr/lib/gcc/arm-none-eabi/4.9.3/include/stdint-gcc.h"
  97              		.file 3 "include/MKE04Z4.h"
  98              		.section	.debug_info,"",%progbits
  99              	.Ldebug_info0:
 100 0000 A6010000 		.4byte	0x1a6
 101 0004 0400     		.2byte	0x4
 102 0006 00000000 		.4byte	.Ldebug_abbrev0
 103 000a 04       		.byte	0x4
 104 000b 01       		.uleb128 0x1
 105 000c D0000000 		.4byte	.LASF25
 106 0010 01       		.byte	0x1
 107 0011 3D010000 		.4byte	.LASF26
 108 0015 52000000 		.4byte	.LASF27
 109 0019 00000000 		.4byte	.Ltext0
 110 001d 40000000 		.4byte	.Letext0-.Ltext0
 111 0021 00000000 		.4byte	.Ldebug_line0
 112 0025 02       		.uleb128 0x2
 113 0026 01       		.byte	0x1
 114 0027 06       		.byte	0x6
 115 0028 8D010000 		.4byte	.LASF0
 116 002c 02       		.uleb128 0x2
 117 002d 02       		.byte	0x2
 118 002e 05       		.byte	0x5
 119 002f 68010000 		.4byte	.LASF1
 120 0033 02       		.uleb128 0x2
 121 0034 04       		.byte	0x4
 122 0035 05       		.byte	0x5
 123 0036 84010000 		.4byte	.LASF2
 124 003a 02       		.uleb128 0x2
 125 003b 08       		.byte	0x8
 126 003c 05       		.byte	0x5
 127 003d 50010000 		.4byte	.LASF3
 128 0041 03       		.uleb128 0x3
 129 0042 07000000 		.4byte	.LASF6
 130 0046 02       		.byte	0x2
 131 0047 2E       		.byte	0x2e
 132 0048 4C000000 		.4byte	0x4c
 133 004c 02       		.uleb128 0x2
 134 004d 01       		.byte	0x1
ARM GAS  /tmp/ccnQliq1.s 			page 4


 135 004e 08       		.byte	0x8
 136 004f 14000000 		.4byte	.LASF4
 137 0053 02       		.uleb128 0x2
 138 0054 02       		.byte	0x2
 139 0055 07       		.byte	0x7
 140 0056 3F000000 		.4byte	.LASF5
 141 005a 03       		.uleb128 0x3
 142 005b 7B010000 		.4byte	.LASF7
 143 005f 02       		.byte	0x2
 144 0060 34       		.byte	0x34
 145 0061 65000000 		.4byte	0x65
 146 0065 02       		.uleb128 0x2
 147 0066 04       		.byte	0x4
 148 0067 07       		.byte	0x7
 149 0068 27000000 		.4byte	.LASF8
 150 006c 02       		.uleb128 0x2
 151 006d 08       		.byte	0x8
 152 006e 07       		.byte	0x7
 153 006f B1000000 		.4byte	.LASF9
 154 0073 04       		.uleb128 0x4
 155 0074 04       		.byte	0x4
 156 0075 05       		.byte	0x5
 157 0076 696E7400 		.ascii	"int\000"
 158 007a 02       		.uleb128 0x2
 159 007b 04       		.byte	0x4
 160 007c 07       		.byte	0x7
 161 007d 96000000 		.4byte	.LASF10
 162 0081 02       		.uleb128 0x2
 163 0082 04       		.byte	0x4
 164 0083 07       		.byte	0x7
 165 0084 47010000 		.4byte	.LASF11
 166 0088 05       		.uleb128 0x5
 167 0089 8D000000 		.4byte	0x8d
 168 008d 06       		.uleb128 0x6
 169 008e 5A000000 		.4byte	0x5a
 170 0092 07       		.uleb128 0x7
 171 0093 20       		.byte	0x20
 172 0094 03       		.byte	0x3
 173 0095 F8       		.byte	0xf8
 174 0096 F9000000 		.4byte	0xf9
 175 009a 08       		.uleb128 0x8
 176 009b 53433100 		.ascii	"SC1\000"
 177 009f 03       		.byte	0x3
 178 00a0 F9       		.byte	0xf9
 179 00a1 8D000000 		.4byte	0x8d
 180 00a5 00       		.byte	0
 181 00a6 08       		.uleb128 0x8
 182 00a7 53433200 		.ascii	"SC2\000"
 183 00ab 03       		.byte	0x3
 184 00ac FA       		.byte	0xfa
 185 00ad 8D000000 		.4byte	0x8d
 186 00b1 04       		.byte	0x4
 187 00b2 08       		.uleb128 0x8
 188 00b3 53433300 		.ascii	"SC3\000"
 189 00b7 03       		.byte	0x3
 190 00b8 FB       		.byte	0xfb
 191 00b9 8D000000 		.4byte	0x8d
ARM GAS  /tmp/ccnQliq1.s 			page 5


 192 00bd 08       		.byte	0x8
 193 00be 08       		.uleb128 0x8
 194 00bf 53433400 		.ascii	"SC4\000"
 195 00c3 03       		.byte	0x3
 196 00c4 FC       		.byte	0xfc
 197 00c5 8D000000 		.4byte	0x8d
 198 00c9 0C       		.byte	0xc
 199 00ca 08       		.uleb128 0x8
 200 00cb 5200     		.ascii	"R\000"
 201 00cd 03       		.byte	0x3
 202 00ce FD       		.byte	0xfd
 203 00cf 88000000 		.4byte	0x88
 204 00d3 10       		.byte	0x10
 205 00d4 08       		.uleb128 0x8
 206 00d5 435600   		.ascii	"CV\000"
 207 00d8 03       		.byte	0x3
 208 00d9 FE       		.byte	0xfe
 209 00da 8D000000 		.4byte	0x8d
 210 00de 14       		.byte	0x14
 211 00df 09       		.uleb128 0x9
 212 00e0 00000000 		.4byte	.LASF12
 213 00e4 03       		.byte	0x3
 214 00e5 FF       		.byte	0xff
 215 00e6 8D000000 		.4byte	0x8d
 216 00ea 18       		.byte	0x18
 217 00eb 0A       		.uleb128 0xa
 218 00ec 53433500 		.ascii	"SC5\000"
 219 00f0 03       		.byte	0x3
 220 00f1 0001     		.2byte	0x100
 221 00f3 8D000000 		.4byte	0x8d
 222 00f7 1C       		.byte	0x1c
 223 00f8 00       		.byte	0
 224 00f9 0B       		.uleb128 0xb
 225 00fa 72010000 		.4byte	.LASF13
 226 00fe 03       		.byte	0x3
 227 00ff 0101     		.2byte	0x101
 228 0101 92000000 		.4byte	0x92
 229 0105 0C       		.uleb128 0xc
 230 0106 20       		.byte	0x20
 231 0107 03       		.byte	0x3
 232 0108 CE08     		.2byte	0x8ce
 233 010a 77010000 		.4byte	0x177
 234 010e 0D       		.uleb128 0xd
 235 010f 39000000 		.4byte	.LASF14
 236 0113 03       		.byte	0x3
 237 0114 CF08     		.2byte	0x8cf
 238 0116 88000000 		.4byte	0x88
 239 011a 00       		.byte	0
 240 011b 0D       		.uleb128 0xd
 241 011c 22000000 		.4byte	.LASF15
 242 0120 03       		.byte	0x3
 243 0121 D008     		.2byte	0x8d0
 244 0123 8D000000 		.4byte	0x8d
 245 0127 04       		.byte	0x4
 246 0128 0D       		.uleb128 0xd
 247 0129 AA000000 		.4byte	.LASF16
 248 012d 03       		.byte	0x3
ARM GAS  /tmp/ccnQliq1.s 			page 6


 249 012e D108     		.2byte	0x8d1
 250 0130 8D000000 		.4byte	0x8d
 251 0134 08       		.byte	0x8
 252 0135 0D       		.uleb128 0xd
 253 0136 0F000000 		.4byte	.LASF17
 254 013a 03       		.byte	0x3
 255 013b D208     		.2byte	0x8d2
 256 013d 8D000000 		.4byte	0x8d
 257 0141 0C       		.byte	0xc
 258 0142 0D       		.uleb128 0xd
 259 0143 87000000 		.4byte	.LASF18
 260 0147 03       		.byte	0x3
 261 0148 D308     		.2byte	0x8d3
 262 014a 88000000 		.4byte	0x88
 263 014e 10       		.byte	0x10
 264 014f 0D       		.uleb128 0xd
 265 0150 81000000 		.4byte	.LASF19
 266 0154 03       		.byte	0x3
 267 0155 D408     		.2byte	0x8d4
 268 0157 88000000 		.4byte	0x88
 269 015b 14       		.byte	0x14
 270 015c 0D       		.uleb128 0xd
 271 015d 7A000000 		.4byte	.LASF20
 272 0161 03       		.byte	0x3
 273 0162 D508     		.2byte	0x8d5
 274 0164 88000000 		.4byte	0x88
 275 0168 18       		.byte	0x18
 276 0169 0D       		.uleb128 0xd
 277 016a A3000000 		.4byte	.LASF21
 278 016e 03       		.byte	0x3
 279 016f D608     		.2byte	0x8d6
 280 0171 8D000000 		.4byte	0x8d
 281 0175 1C       		.byte	0x1c
 282 0176 00       		.byte	0
 283 0177 0B       		.uleb128 0xb
 284 0178 8D000000 		.4byte	.LASF22
 285 017c 03       		.byte	0x3
 286 017d D708     		.2byte	0x8d7
 287 017f 05010000 		.4byte	0x105
 288 0183 0E       		.uleb128 0xe
 289 0184 5E010000 		.4byte	.LASF23
 290 0188 01       		.byte	0x1
 291 0189 09       		.byte	0x9
 292 018a 00000000 		.4byte	.LFB33
 293 018e 28000000 		.4byte	.LFE33-.LFB33
 294 0192 01       		.uleb128 0x1
 295 0193 9C       		.byte	0x9c
 296 0194 0F       		.uleb128 0xf
 297 0195 C8000000 		.4byte	.LASF24
 298 0199 01       		.byte	0x1
 299 019a 19       		.byte	0x19
 300 019b 41000000 		.4byte	0x41
 301 019f 28000000 		.4byte	.LFB34
 302 01a3 18000000 		.4byte	.LFE34-.LFB34
 303 01a7 01       		.uleb128 0x1
 304 01a8 9C       		.byte	0x9c
 305 01a9 00       		.byte	0
ARM GAS  /tmp/ccnQliq1.s 			page 7


 306              		.section	.debug_abbrev,"",%progbits
 307              	.Ldebug_abbrev0:
 308 0000 01       		.uleb128 0x1
 309 0001 11       		.uleb128 0x11
 310 0002 01       		.byte	0x1
 311 0003 25       		.uleb128 0x25
 312 0004 0E       		.uleb128 0xe
 313 0005 13       		.uleb128 0x13
 314 0006 0B       		.uleb128 0xb
 315 0007 03       		.uleb128 0x3
 316 0008 0E       		.uleb128 0xe
 317 0009 1B       		.uleb128 0x1b
 318 000a 0E       		.uleb128 0xe
 319 000b 11       		.uleb128 0x11
 320 000c 01       		.uleb128 0x1
 321 000d 12       		.uleb128 0x12
 322 000e 06       		.uleb128 0x6
 323 000f 10       		.uleb128 0x10
 324 0010 17       		.uleb128 0x17
 325 0011 00       		.byte	0
 326 0012 00       		.byte	0
 327 0013 02       		.uleb128 0x2
 328 0014 24       		.uleb128 0x24
 329 0015 00       		.byte	0
 330 0016 0B       		.uleb128 0xb
 331 0017 0B       		.uleb128 0xb
 332 0018 3E       		.uleb128 0x3e
 333 0019 0B       		.uleb128 0xb
 334 001a 03       		.uleb128 0x3
 335 001b 0E       		.uleb128 0xe
 336 001c 00       		.byte	0
 337 001d 00       		.byte	0
 338 001e 03       		.uleb128 0x3
 339 001f 16       		.uleb128 0x16
 340 0020 00       		.byte	0
 341 0021 03       		.uleb128 0x3
 342 0022 0E       		.uleb128 0xe
 343 0023 3A       		.uleb128 0x3a
 344 0024 0B       		.uleb128 0xb
 345 0025 3B       		.uleb128 0x3b
 346 0026 0B       		.uleb128 0xb
 347 0027 49       		.uleb128 0x49
 348 0028 13       		.uleb128 0x13
 349 0029 00       		.byte	0
 350 002a 00       		.byte	0
 351 002b 04       		.uleb128 0x4
 352 002c 24       		.uleb128 0x24
 353 002d 00       		.byte	0
 354 002e 0B       		.uleb128 0xb
 355 002f 0B       		.uleb128 0xb
 356 0030 3E       		.uleb128 0x3e
 357 0031 0B       		.uleb128 0xb
 358 0032 03       		.uleb128 0x3
 359 0033 08       		.uleb128 0x8
 360 0034 00       		.byte	0
 361 0035 00       		.byte	0
 362 0036 05       		.uleb128 0x5
ARM GAS  /tmp/ccnQliq1.s 			page 8


 363 0037 26       		.uleb128 0x26
 364 0038 00       		.byte	0
 365 0039 49       		.uleb128 0x49
 366 003a 13       		.uleb128 0x13
 367 003b 00       		.byte	0
 368 003c 00       		.byte	0
 369 003d 06       		.uleb128 0x6
 370 003e 35       		.uleb128 0x35
 371 003f 00       		.byte	0
 372 0040 49       		.uleb128 0x49
 373 0041 13       		.uleb128 0x13
 374 0042 00       		.byte	0
 375 0043 00       		.byte	0
 376 0044 07       		.uleb128 0x7
 377 0045 13       		.uleb128 0x13
 378 0046 01       		.byte	0x1
 379 0047 0B       		.uleb128 0xb
 380 0048 0B       		.uleb128 0xb
 381 0049 3A       		.uleb128 0x3a
 382 004a 0B       		.uleb128 0xb
 383 004b 3B       		.uleb128 0x3b
 384 004c 0B       		.uleb128 0xb
 385 004d 01       		.uleb128 0x1
 386 004e 13       		.uleb128 0x13
 387 004f 00       		.byte	0
 388 0050 00       		.byte	0
 389 0051 08       		.uleb128 0x8
 390 0052 0D       		.uleb128 0xd
 391 0053 00       		.byte	0
 392 0054 03       		.uleb128 0x3
 393 0055 08       		.uleb128 0x8
 394 0056 3A       		.uleb128 0x3a
 395 0057 0B       		.uleb128 0xb
 396 0058 3B       		.uleb128 0x3b
 397 0059 0B       		.uleb128 0xb
 398 005a 49       		.uleb128 0x49
 399 005b 13       		.uleb128 0x13
 400 005c 38       		.uleb128 0x38
 401 005d 0B       		.uleb128 0xb
 402 005e 00       		.byte	0
 403 005f 00       		.byte	0
 404 0060 09       		.uleb128 0x9
 405 0061 0D       		.uleb128 0xd
 406 0062 00       		.byte	0
 407 0063 03       		.uleb128 0x3
 408 0064 0E       		.uleb128 0xe
 409 0065 3A       		.uleb128 0x3a
 410 0066 0B       		.uleb128 0xb
 411 0067 3B       		.uleb128 0x3b
 412 0068 0B       		.uleb128 0xb
 413 0069 49       		.uleb128 0x49
 414 006a 13       		.uleb128 0x13
 415 006b 38       		.uleb128 0x38
 416 006c 0B       		.uleb128 0xb
 417 006d 00       		.byte	0
 418 006e 00       		.byte	0
 419 006f 0A       		.uleb128 0xa
ARM GAS  /tmp/ccnQliq1.s 			page 9


 420 0070 0D       		.uleb128 0xd
 421 0071 00       		.byte	0
 422 0072 03       		.uleb128 0x3
 423 0073 08       		.uleb128 0x8
 424 0074 3A       		.uleb128 0x3a
 425 0075 0B       		.uleb128 0xb
 426 0076 3B       		.uleb128 0x3b
 427 0077 05       		.uleb128 0x5
 428 0078 49       		.uleb128 0x49
 429 0079 13       		.uleb128 0x13
 430 007a 38       		.uleb128 0x38
 431 007b 0B       		.uleb128 0xb
 432 007c 00       		.byte	0
 433 007d 00       		.byte	0
 434 007e 0B       		.uleb128 0xb
 435 007f 16       		.uleb128 0x16
 436 0080 00       		.byte	0
 437 0081 03       		.uleb128 0x3
 438 0082 0E       		.uleb128 0xe
 439 0083 3A       		.uleb128 0x3a
 440 0084 0B       		.uleb128 0xb
 441 0085 3B       		.uleb128 0x3b
 442 0086 05       		.uleb128 0x5
 443 0087 49       		.uleb128 0x49
 444 0088 13       		.uleb128 0x13
 445 0089 00       		.byte	0
 446 008a 00       		.byte	0
 447 008b 0C       		.uleb128 0xc
 448 008c 13       		.uleb128 0x13
 449 008d 01       		.byte	0x1
 450 008e 0B       		.uleb128 0xb
 451 008f 0B       		.uleb128 0xb
 452 0090 3A       		.uleb128 0x3a
 453 0091 0B       		.uleb128 0xb
 454 0092 3B       		.uleb128 0x3b
 455 0093 05       		.uleb128 0x5
 456 0094 01       		.uleb128 0x1
 457 0095 13       		.uleb128 0x13
 458 0096 00       		.byte	0
 459 0097 00       		.byte	0
 460 0098 0D       		.uleb128 0xd
 461 0099 0D       		.uleb128 0xd
 462 009a 00       		.byte	0
 463 009b 03       		.uleb128 0x3
 464 009c 0E       		.uleb128 0xe
 465 009d 3A       		.uleb128 0x3a
 466 009e 0B       		.uleb128 0xb
 467 009f 3B       		.uleb128 0x3b
 468 00a0 05       		.uleb128 0x5
 469 00a1 49       		.uleb128 0x49
 470 00a2 13       		.uleb128 0x13
 471 00a3 38       		.uleb128 0x38
 472 00a4 0B       		.uleb128 0xb
 473 00a5 00       		.byte	0
 474 00a6 00       		.byte	0
 475 00a7 0E       		.uleb128 0xe
 476 00a8 2E       		.uleb128 0x2e
ARM GAS  /tmp/ccnQliq1.s 			page 10


 477 00a9 00       		.byte	0
 478 00aa 3F       		.uleb128 0x3f
 479 00ab 19       		.uleb128 0x19
 480 00ac 03       		.uleb128 0x3
 481 00ad 0E       		.uleb128 0xe
 482 00ae 3A       		.uleb128 0x3a
 483 00af 0B       		.uleb128 0xb
 484 00b0 3B       		.uleb128 0x3b
 485 00b1 0B       		.uleb128 0xb
 486 00b2 27       		.uleb128 0x27
 487 00b3 19       		.uleb128 0x19
 488 00b4 11       		.uleb128 0x11
 489 00b5 01       		.uleb128 0x1
 490 00b6 12       		.uleb128 0x12
 491 00b7 06       		.uleb128 0x6
 492 00b8 40       		.uleb128 0x40
 493 00b9 18       		.uleb128 0x18
 494 00ba 9742     		.uleb128 0x2117
 495 00bc 19       		.uleb128 0x19
 496 00bd 00       		.byte	0
 497 00be 00       		.byte	0
 498 00bf 0F       		.uleb128 0xf
 499 00c0 2E       		.uleb128 0x2e
 500 00c1 00       		.byte	0
 501 00c2 3F       		.uleb128 0x3f
 502 00c3 19       		.uleb128 0x19
 503 00c4 03       		.uleb128 0x3
 504 00c5 0E       		.uleb128 0xe
 505 00c6 3A       		.uleb128 0x3a
 506 00c7 0B       		.uleb128 0xb
 507 00c8 3B       		.uleb128 0x3b
 508 00c9 0B       		.uleb128 0xb
 509 00ca 49       		.uleb128 0x49
 510 00cb 13       		.uleb128 0x13
 511 00cc 11       		.uleb128 0x11
 512 00cd 01       		.uleb128 0x1
 513 00ce 12       		.uleb128 0x12
 514 00cf 06       		.uleb128 0x6
 515 00d0 40       		.uleb128 0x40
 516 00d1 18       		.uleb128 0x18
 517 00d2 9742     		.uleb128 0x2117
 518 00d4 19       		.uleb128 0x19
 519 00d5 00       		.byte	0
 520 00d6 00       		.byte	0
 521 00d7 00       		.byte	0
 522              		.section	.debug_aranges,"",%progbits
 523 0000 1C000000 		.4byte	0x1c
 524 0004 0200     		.2byte	0x2
 525 0006 00000000 		.4byte	.Ldebug_info0
 526 000a 04       		.byte	0x4
 527 000b 00       		.byte	0
 528 000c 0000     		.2byte	0
 529 000e 0000     		.2byte	0
 530 0010 00000000 		.4byte	.Ltext0
 531 0014 40000000 		.4byte	.Letext0-.Ltext0
 532 0018 00000000 		.4byte	0
 533 001c 00000000 		.4byte	0
ARM GAS  /tmp/ccnQliq1.s 			page 11


 534              		.section	.debug_line,"",%progbits
 535              	.Ldebug_line0:
 536 0000 9B000000 		.section	.debug_str,"MS",%progbits,1
 536      02006E00 
 536      00000201 
 536      FB0E0D00 
 536      01010101 
 537              	.LASF12:
 538 0000 41504354 		.ascii	"APCTL1\000"
 538      4C3100
 539              	.LASF6:
 540 0007 75696E74 		.ascii	"uint8_t\000"
 540      385F7400 
 541              	.LASF17:
 542 000f 53434743 		.ascii	"SCGC\000"
 542      00
 543              	.LASF4:
 544 0014 756E7369 		.ascii	"unsigned char\000"
 544      676E6564 
 544      20636861 
 544      7200
 545              	.LASF15:
 546 0022 534F5054 		.ascii	"SOPT\000"
 546      00
 547              	.LASF8:
 548 0027 6C6F6E67 		.ascii	"long unsigned int\000"
 548      20756E73 
 548      69676E65 
 548      6420696E 
 548      7400
 549              	.LASF14:
 550 0039 53525349 		.ascii	"SRSID\000"
 550      4400
 551              	.LASF5:
 552 003f 73686F72 		.ascii	"short unsigned int\000"
 552      7420756E 
 552      7369676E 
 552      65642069 
 552      6E7400
 553              	.LASF27:
 554 0052 2F686F6D 		.ascii	"/home/xxx/projects/armmke_dev1/firmware\000"
 554      652F7878 
 554      782F7072 
 554      6F6A6563 
 554      74732F61 
 555              	.LASF20:
 556 007a 55554944 		.ascii	"UUIDMH\000"
 556      4D4800
 557              	.LASF19:
 558 0081 55554944 		.ascii	"UUIDH\000"
 558      4800
 559              	.LASF18:
 560 0087 55554944 		.ascii	"UUIDL\000"
 560      4C00
 561              	.LASF22:
 562 008d 53494D5F 		.ascii	"SIM_Type\000"
 562      54797065 
ARM GAS  /tmp/ccnQliq1.s 			page 12


 562      00
 563              	.LASF10:
 564 0096 756E7369 		.ascii	"unsigned int\000"
 564      676E6564 
 564      20696E74 
 564      00
 565              	.LASF21:
 566 00a3 434C4B44 		.ascii	"CLKDIV\000"
 566      495600
 567              	.LASF16:
 568 00aa 50494E53 		.ascii	"PINSEL\000"
 568      454C00
 569              	.LASF9:
 570 00b1 6C6F6E67 		.ascii	"long long unsigned int\000"
 570      206C6F6E 
 570      6720756E 
 570      7369676E 
 570      65642069 
 571              	.LASF24:
 572 00c8 6765745F 		.ascii	"get_ADC\000"
 572      41444300 
 573              	.LASF25:
 574 00d0 474E5520 		.ascii	"GNU C 4.9.3 20150529 (prerelease) -mthumb -mcpu=cor"
 574      4320342E 
 574      392E3320 
 574      32303135 
 574      30353239 
 575 0103 7465782D 		.ascii	"tex-m0plus -g -Os -fno-common -ffreestanding -fno-b"
 575      6D30706C 
 575      7573202D 
 575      67202D4F 
 575      73202D66 
 576 0136 75696C74 		.ascii	"uiltin\000"
 576      696E00
 577              	.LASF26:
 578 013d 7372632F 		.ascii	"src/adc.c\000"
 578      6164632E 
 578      6300
 579              	.LASF11:
 580 0147 73697A65 		.ascii	"sizetype\000"
 580      74797065 
 580      00
 581              	.LASF3:
 582 0150 6C6F6E67 		.ascii	"long long int\000"
 582      206C6F6E 
 582      6720696E 
 582      7400
 583              	.LASF23:
 584 015e 73657475 		.ascii	"setup_ADC\000"
 584      705F4144 
 584      4300
 585              	.LASF1:
 586 0168 73686F72 		.ascii	"short int\000"
 586      7420696E 
 586      7400
 587              	.LASF13:
 588 0172 4144435F 		.ascii	"ADC_Type\000"
ARM GAS  /tmp/ccnQliq1.s 			page 13


 588      54797065 
 588      00
 589              	.LASF7:
 590 017b 75696E74 		.ascii	"uint32_t\000"
 590      33325F74 
 590      00
 591              	.LASF2:
 592 0184 6C6F6E67 		.ascii	"long int\000"
 592      20696E74 
 592      00
 593              	.LASF0:
 594 018d 7369676E 		.ascii	"signed char\000"
 594      65642063 
 594      68617200 
 595              		.ident	"GCC: (15:4.9.3+svn231177-1) 4.9.3 20150529 (prerelease)"
ARM GAS  /tmp/ccnQliq1.s 			page 14


DEFINED SYMBOLS
                            *ABS*:0000000000000000 adc.c
     /tmp/ccnQliq1.s:17     .text:0000000000000000 $t
     /tmp/ccnQliq1.s:22     .text:0000000000000000 setup_ADC
     /tmp/ccnQliq1.s:56     .text:0000000000000020 $d
     /tmp/ccnQliq1.s:61     .text:0000000000000028 $t
     /tmp/ccnQliq1.s:66     .text:0000000000000028 get_ADC
     /tmp/ccnQliq1.s:91     .text:000000000000003c $d
                     .debug_frame:0000000000000010 $d

NO UNDEFINED SYMBOLS
