ARM GAS  /tmp/cc6c92KN.s 			page 1


   1              		.cpu cortex-m0plus
   2              		.fpu softvfp
   3              		.eabi_attribute 20, 1
   4              		.eabi_attribute 21, 1
   5              		.eabi_attribute 23, 3
   6              		.eabi_attribute 24, 1
   7              		.eabi_attribute 25, 1
   8              		.eabi_attribute 26, 1
   9              		.eabi_attribute 30, 4
  10              		.eabi_attribute 34, 0
  11              		.eabi_attribute 18, 4
  12              		.code	16
  13              		.file	"main.c"
  14              		.text
  15              	.Ltext0:
  16              		.cfi_sections	.debug_frame
  17              		.align	1
  18              		.global	setup
  19              		.code	16
  20              		.thumb_func
  21              		.type	setup, %function
  22              	setup:
  23              	.LFB33:
  24              		.file 1 "src/main.c"
   1:src/main.c    **** /**
   2:src/main.c    ****  * Main
   3:src/main.c    ****  *
   4:src/main.c    ****  * based on work by Kevin Cuzner
   5:src/main.c    ****  * Modified by meh
   6:src/main.c    ****  */
   7:src/main.c    **** 
   8:src/main.c    ****  #include "MKE04Z4.h"
   9:src/main.c    ****  #include "pit.h"
  10:src/main.c    ****  #include <stdint.h>
  11:src/main.c    **** 
  12:src/main.c    **** 
  13:src/main.c    **** 
  14:src/main.c    **** void setup()
  15:src/main.c    **** {
  25              		.loc 1 15 0
  26              		.cfi_startproc
  16:src/main.c    ****     //Setup the pins for our LED.
  17:src/main.c    ****     GPIOA->PIDR |= (1 << 17);
  27              		.loc 1 17 0
  28 0000 8021     		mov	r1, #128
  29 0002 064B     		ldr	r3, .L2
  30 0004 8902     		lsl	r1, r1, #10
  31 0006 9A69     		ldr	r2, [r3, #24]
  18:src/main.c    ****     GPIOA->PDDR |= (1 << 17);
  19:src/main.c    ****     GPIOA->PSOR |= (1 << 17);
  20:src/main.c    **** }
  32              		.loc 1 20 0
  33              		@ sp needed
  17:src/main.c    ****     GPIOA->PDDR |= (1 << 17);
  34              		.loc 1 17 0
  35 0008 0A43     		orr	r2, r1
  36 000a 9A61     		str	r2, [r3, #24]
ARM GAS  /tmp/cc6c92KN.s 			page 2


  18:src/main.c    ****     GPIOA->PDDR |= (1 << 17);
  37              		.loc 1 18 0
  38 000c 5A69     		ldr	r2, [r3, #20]
  39 000e 0A43     		orr	r2, r1
  40 0010 5A61     		str	r2, [r3, #20]
  19:src/main.c    **** }
  41              		.loc 1 19 0
  42 0012 5A68     		ldr	r2, [r3, #4]
  43 0014 0A43     		orr	r2, r1
  44 0016 5A60     		str	r2, [r3, #4]
  45              		.loc 1 20 0
  46 0018 7047     		bx	lr
  47              	.L3:
  48 001a C046     		.align	2
  49              	.L2:
  50 001c 00F00F40 		.word	1074786304
  51              		.cfi_endproc
  52              	.LFE33:
  53              		.size	setup, .-setup
  54              		.global	__aeabi_idiv
  55              		.align	1
  56              		.global	map
  57              		.code	16
  58              		.thumb_func
  59              		.type	map, %function
  60              	map:
  61              	.LFB34:
  21:src/main.c    **** 
  22:src/main.c    **** uint16_t map(uint16_t x, uint16_t in_min, uint16_t in_max, uint16_t out_min, uint16_t out_max)
  23:src/main.c    **** {
  62              		.loc 1 23 0
  63              		.cfi_startproc
  64              	.LVL0:
  65 0020 10B5     		push	{r4, lr}
  66              		.cfi_def_cfa_offset 8
  67              		.cfi_offset 4, -8
  68              		.cfi_offset 14, -4
  69              		.loc 1 23 0
  70 0022 1C1C     		mov	r4, r3
  71 0024 02AB     		add	r3, sp, #8
  72              	.LVL1:
  73 0026 1B88     		ldrh	r3, [r3]
  74              	.LVL2:
  24:src/main.c    ****   return (x - in_min) * (out_max - out_min) / (in_max - in_min) + out_min;
  75              		.loc 1 24 0
  76 0028 401A     		sub	r0, r0, r1
  77              	.LVL3:
  78 002a 1B1B     		sub	r3, r3, r4
  79 002c 5843     		mul	r0, r3
  80 002e 511A     		sub	r1, r2, r1
  81              	.LVL4:
  82 0030 FFF7FEFF 		bl	__aeabi_idiv
  83              	.LVL5:
  84 0034 2018     		add	r0, r4, r0
  85 0036 80B2     		uxth	r0, r0
  25:src/main.c    **** }
  86              		.loc 1 25 0
ARM GAS  /tmp/cc6c92KN.s 			page 3


  87              		@ sp needed
  88 0038 10BD     		pop	{r4, pc}
  89              		.cfi_endproc
  90              	.LFE34:
  91              		.size	map, .-map
  92              		.section	.text.startup,"ax",%progbits
  93              		.align	1
  94              		.global	main
  95              		.code	16
  96              		.thumb_func
  97              		.type	main, %function
  98              	main:
  99              	.LFB35:
  26:src/main.c    **** 
  27:src/main.c    **** int main()
  28:src/main.c    **** {
 100              		.loc 1 28 0
 101              		.cfi_startproc
 102 0000 10B5     		push	{r4, lr}
 103              		.cfi_def_cfa_offset 8
 104              		.cfi_offset 4, -8
 105              		.cfi_offset 14, -4
 106              	.L6:
 107              	.LBB5:
  29:src/main.c    ****     while (1)
  30:src/main.c    ****     {
  31:src/main.c    ****         uint8_t adc_val = get_ADC();
 108              		.loc 1 31 0 discriminator 1
 109 0002 FFF7FEFF 		bl	get_ADC
 110              	.LVL6:
 111              	.LBB6:
 112              	.LBB7:
  24:src/main.c    **** }
 113              		.loc 1 24 0 discriminator 1
 114 0006 FF21     		mov	r1, #255
 115 0008 0840     		and	r0, r1
 116              	.LVL7:
 117 000a 041C     		mov	r4, r0
 118 000c 0848     		ldr	r0, .L8
 119 000e 6043     		mul	r0, r4
 120 0010 FFF7FEFF 		bl	__aeabi_idiv
 121              	.LVL8:
 122 0014 6430     		add	r0, r0, #100
 123 0016 80B2     		uxth	r0, r0
 124              	.LBE7:
 125              	.LBE6:
  32:src/main.c    **** 
  33:src/main.c    ****         uint16_t pwm_val = map(adc_val, 0, 255, 100, 2960);
  34:src/main.c    ****         pwm_set_amount(pwm_val);
 126              		.loc 1 34 0 discriminator 1
 127 0018 FFF7FEFF 		bl	pwm_set_amount
 128              	.LVL9:
  35:src/main.c    **** 
  36:src/main.c    ****         delayms(adc_val);
 129              		.loc 1 36 0 discriminator 1
 130 001c 201C     		mov	r0, r4
 131 001e FFF7FEFF 		bl	delayms
ARM GAS  /tmp/cc6c92KN.s 			page 4


 132              	.LVL10:
  37:src/main.c    ****         GPIOA->PTOR |= 1 << 17;
 133              		.loc 1 37 0 discriminator 1
 134 0022 8021     		mov	r1, #128
 135 0024 034A     		ldr	r2, .L8+4
 136 0026 8902     		lsl	r1, r1, #10
 137 0028 D368     		ldr	r3, [r2, #12]
 138 002a 0B43     		orr	r3, r1
 139 002c D360     		str	r3, [r2, #12]
 140              	.LBE5:
  38:src/main.c    ****     }
 141              		.loc 1 38 0 discriminator 1
 142 002e E8E7     		b	.L6
 143              	.L9:
 144              		.align	2
 145              	.L8:
 146 0030 2C0B0000 		.word	2860
 147 0034 00F00F40 		.word	1074786304
 148              		.cfi_endproc
 149              	.LFE35:
 150              		.size	main, .-main
 151              		.text
 152              	.Letext0:
 153              		.file 2 "/usr/lib/gcc/arm-none-eabi/4.9.3/include/stdint-gcc.h"
 154              		.file 3 "include/MKE04Z4.h"
 155              		.file 4 "include/pit.h"
 156 003a C046     		.section	.debug_info,"",%progbits
 157              	.Ldebug_info0:
 158 0000 8A020000 		.4byte	0x28a
 159 0004 0400     		.2byte	0x4
 160 0006 00000000 		.4byte	.Ldebug_abbrev0
 161 000a 04       		.byte	0x4
 162 000b 01       		.uleb128 0x1
 163 000c E3000000 		.4byte	.LASF27
 164 0010 01       		.byte	0x1
 165 0011 86010000 		.4byte	.LASF28
 166 0015 74000000 		.4byte	.LASF29
 167 0019 00000000 		.4byte	.Ldebug_ranges0+0
 168 001d 00000000 		.4byte	0
 169 0021 00000000 		.4byte	.Ldebug_line0
 170 0025 02       		.uleb128 0x2
 171 0026 01       		.byte	0x1
 172 0027 06       		.byte	0x6
 173 0028 BB010000 		.4byte	.LASF0
 174 002c 02       		.uleb128 0x2
 175 002d 02       		.byte	0x2
 176 002e 05       		.byte	0x5
 177 002f 91010000 		.4byte	.LASF1
 178 0033 02       		.uleb128 0x2
 179 0034 04       		.byte	0x4
 180 0035 05       		.byte	0x5
 181 0036 AD010000 		.4byte	.LASF2
 182 003a 02       		.uleb128 0x2
 183 003b 08       		.byte	0x8
 184 003c 05       		.byte	0x5
 185 003d 69010000 		.4byte	.LASF3
 186 0041 03       		.uleb128 0x3
ARM GAS  /tmp/cc6c92KN.s 			page 5


 187 0042 0B000000 		.4byte	.LASF5
 188 0046 02       		.byte	0x2
 189 0047 2E       		.byte	0x2e
 190 0048 4C000000 		.4byte	0x4c
 191 004c 02       		.uleb128 0x2
 192 004d 01       		.byte	0x1
 193 004e 08       		.byte	0x8
 194 004f 3C000000 		.4byte	.LASF4
 195 0053 03       		.uleb128 0x3
 196 0054 9B010000 		.4byte	.LASF6
 197 0058 02       		.byte	0x2
 198 0059 31       		.byte	0x31
 199 005a 5E000000 		.4byte	0x5e
 200 005e 02       		.uleb128 0x2
 201 005f 02       		.byte	0x2
 202 0060 07       		.byte	0x7
 203 0061 61000000 		.4byte	.LASF7
 204 0065 03       		.uleb128 0x3
 205 0066 A4010000 		.4byte	.LASF8
 206 006a 02       		.byte	0x2
 207 006b 34       		.byte	0x34
 208 006c 70000000 		.4byte	0x70
 209 0070 02       		.uleb128 0x2
 210 0071 04       		.byte	0x4
 211 0072 07       		.byte	0x7
 212 0073 4F000000 		.4byte	.LASF9
 213 0077 02       		.uleb128 0x2
 214 0078 08       		.byte	0x8
 215 0079 07       		.byte	0x7
 216 007a C4000000 		.4byte	.LASF10
 217 007e 04       		.uleb128 0x4
 218 007f 04       		.byte	0x4
 219 0080 05       		.byte	0x5
 220 0081 696E7400 		.ascii	"int\000"
 221 0085 02       		.uleb128 0x2
 222 0086 04       		.byte	0x4
 223 0087 07       		.byte	0x7
 224 0088 B7000000 		.4byte	.LASF11
 225 008c 02       		.uleb128 0x2
 226 008d 04       		.byte	0x4
 227 008e 07       		.byte	0x7
 228 008f 58010000 		.4byte	.LASF12
 229 0093 05       		.uleb128 0x5
 230 0094 98000000 		.4byte	0x98
 231 0098 06       		.uleb128 0x6
 232 0099 65000000 		.4byte	0x65
 233 009d 07       		.uleb128 0x7
 234 009e 1C       		.byte	0x1c
 235 009f 03       		.byte	0x3
 236 00a0 9804     		.2byte	0x498
 237 00a2 02010000 		.4byte	0x102
 238 00a6 08       		.uleb128 0x8
 239 00a7 4A000000 		.4byte	.LASF13
 240 00ab 03       		.byte	0x3
 241 00ac 9904     		.2byte	0x499
 242 00ae 98000000 		.4byte	0x98
 243 00b2 00       		.byte	0
ARM GAS  /tmp/cc6c92KN.s 			page 6


 244 00b3 08       		.uleb128 0x8
 245 00b4 A8000000 		.4byte	.LASF14
 246 00b8 03       		.byte	0x3
 247 00b9 9A04     		.2byte	0x49a
 248 00bb 98000000 		.4byte	0x98
 249 00bf 04       		.byte	0x4
 250 00c0 08       		.uleb128 0x8
 251 00c1 C7010000 		.4byte	.LASF15
 252 00c5 03       		.byte	0x3
 253 00c6 9B04     		.2byte	0x49b
 254 00c8 98000000 		.4byte	0x98
 255 00cc 08       		.byte	0x8
 256 00cd 08       		.uleb128 0x8
 257 00ce B6010000 		.4byte	.LASF16
 258 00d2 03       		.byte	0x3
 259 00d3 9C04     		.2byte	0x49c
 260 00d5 98000000 		.4byte	0x98
 261 00d9 0C       		.byte	0xc
 262 00da 08       		.uleb128 0x8
 263 00db 13000000 		.4byte	.LASF17
 264 00df 03       		.byte	0x3
 265 00e0 9D04     		.2byte	0x49d
 266 00e2 93000000 		.4byte	0x93
 267 00e6 10       		.byte	0x10
 268 00e7 08       		.uleb128 0x8
 269 00e8 00000000 		.4byte	.LASF18
 270 00ec 03       		.byte	0x3
 271 00ed 9E04     		.2byte	0x49e
 272 00ef 98000000 		.4byte	0x98
 273 00f3 14       		.byte	0x14
 274 00f4 08       		.uleb128 0x8
 275 00f5 37000000 		.4byte	.LASF19
 276 00f9 03       		.byte	0x3
 277 00fa 9F04     		.2byte	0x49f
 278 00fc 98000000 		.4byte	0x98
 279 0100 18       		.byte	0x18
 280 0101 00       		.byte	0
 281 0102 09       		.uleb128 0x9
 282 0103 AD000000 		.4byte	.LASF20
 283 0107 03       		.byte	0x3
 284 0108 A004     		.2byte	0x4a0
 285 010a 9D000000 		.4byte	0x9d
 286 010e 0A       		.uleb128 0xa
 287 010f 6D617000 		.ascii	"map\000"
 288 0113 01       		.byte	0x1
 289 0114 16       		.byte	0x16
 290 0115 53000000 		.4byte	0x53
 291 0119 01       		.byte	0x1
 292 011a 54010000 		.4byte	0x154
 293 011e 0B       		.uleb128 0xb
 294 011f 7800     		.ascii	"x\000"
 295 0121 01       		.byte	0x1
 296 0122 16       		.byte	0x16
 297 0123 53000000 		.4byte	0x53
 298 0127 0C       		.uleb128 0xc
 299 0128 9C000000 		.4byte	.LASF21
 300 012c 01       		.byte	0x1
ARM GAS  /tmp/cc6c92KN.s 			page 7


 301 012d 16       		.byte	0x16
 302 012e 53000000 		.4byte	0x53
 303 0132 0C       		.uleb128 0xc
 304 0133 20000000 		.4byte	.LASF22
 305 0137 01       		.byte	0x1
 306 0138 16       		.byte	0x16
 307 0139 53000000 		.4byte	0x53
 308 013d 0C       		.uleb128 0xc
 309 013e 2F000000 		.4byte	.LASF23
 310 0142 01       		.byte	0x1
 311 0143 16       		.byte	0x16
 312 0144 53000000 		.4byte	0x53
 313 0148 0C       		.uleb128 0xc
 314 0149 27000000 		.4byte	.LASF24
 315 014d 01       		.byte	0x1
 316 014e 16       		.byte	0x16
 317 014f 53000000 		.4byte	0x53
 318 0153 00       		.byte	0
 319 0154 0D       		.uleb128 0xd
 320 0155 05000000 		.4byte	.LASF30
 321 0159 01       		.byte	0x1
 322 015a 0E       		.byte	0xe
 323 015b 00000000 		.4byte	.LFB33
 324 015f 20000000 		.4byte	.LFE33-.LFB33
 325 0163 01       		.uleb128 0x1
 326 0164 9C       		.byte	0x9c
 327 0165 0E       		.uleb128 0xe
 328 0166 0E010000 		.4byte	0x10e
 329 016a 20000000 		.4byte	.LFB34
 330 016e 1A000000 		.4byte	.LFE34-.LFB34
 331 0172 01       		.uleb128 0x1
 332 0173 9C       		.byte	0x9c
 333 0174 A6010000 		.4byte	0x1a6
 334 0178 0F       		.uleb128 0xf
 335 0179 1E010000 		.4byte	0x11e
 336 017d 00000000 		.4byte	.LLST0
 337 0181 0F       		.uleb128 0xf
 338 0182 27010000 		.4byte	0x127
 339 0186 21000000 		.4byte	.LLST1
 340 018a 0F       		.uleb128 0xf
 341 018b 32010000 		.4byte	0x132
 342 018f 42000000 		.4byte	.LLST2
 343 0193 0F       		.uleb128 0xf
 344 0194 3D010000 		.4byte	0x13d
 345 0198 63000000 		.4byte	.LLST3
 346 019c 0F       		.uleb128 0xf
 347 019d 48010000 		.4byte	0x148
 348 01a1 84000000 		.4byte	.LLST4
 349 01a5 00       		.byte	0
 350 01a6 10       		.uleb128 0x10
 351 01a7 A3000000 		.4byte	.LASF31
 352 01ab 01       		.byte	0x1
 353 01ac 1B       		.byte	0x1b
 354 01ad 7E000000 		.4byte	0x7e
 355 01b1 00000000 		.4byte	.LFB35
 356 01b5 38000000 		.4byte	.LFE35-.LFB35
 357 01b9 01       		.uleb128 0x1
ARM GAS  /tmp/cc6c92KN.s 			page 8


 358 01ba 9C       		.byte	0x9c
 359 01bb 5E020000 		.4byte	0x25e
 360 01bf 11       		.uleb128 0x11
 361 01c0 02000000 		.4byte	.LBB5
 362 01c4 2C000000 		.4byte	.LBE5-.LBB5
 363 01c8 12       		.uleb128 0x12
 364 01c9 50010000 		.4byte	.LASF32
 365 01cd 01       		.byte	0x1
 366 01ce 1F       		.byte	0x1f
 367 01cf 41000000 		.4byte	0x41
 368 01d3 B0000000 		.4byte	.LLST5
 369 01d7 13       		.uleb128 0x13
 370 01d8 DB000000 		.4byte	.LASF25
 371 01dc 01       		.byte	0x1
 372 01dd 1F       		.byte	0x1f
 373 01de 7E000000 		.4byte	0x7e
 374 01e2 E8010000 		.4byte	0x1e8
 375 01e6 14       		.uleb128 0x14
 376 01e7 00       		.byte	0
 377 01e8 15       		.uleb128 0x15
 378 01e9 61010000 		.4byte	.LASF33
 379 01ed 01       		.byte	0x1
 380 01ee 21       		.byte	0x21
 381 01ef 53000000 		.4byte	0x53
 382 01f3 13       		.uleb128 0x13
 383 01f4 77010000 		.4byte	.LASF26
 384 01f8 01       		.byte	0x1
 385 01f9 22       		.byte	0x22
 386 01fa 7E000000 		.4byte	0x7e
 387 01fe 04020000 		.4byte	0x204
 388 0202 14       		.uleb128 0x14
 389 0203 00       		.byte	0
 390 0204 16       		.uleb128 0x16
 391 0205 0E010000 		.4byte	0x10e
 392 0209 06000000 		.4byte	.LBB6
 393 020d 12000000 		.4byte	.LBE6-.LBB6
 394 0211 01       		.byte	0x1
 395 0212 21       		.byte	0x21
 396 0213 3A020000 		.4byte	0x23a
 397 0217 17       		.uleb128 0x17
 398 0218 48010000 		.4byte	0x148
 399 021c 900B     		.2byte	0xb90
 400 021e 18       		.uleb128 0x18
 401 021f 3D010000 		.4byte	0x13d
 402 0223 64       		.byte	0x64
 403 0224 18       		.uleb128 0x18
 404 0225 32010000 		.4byte	0x132
 405 0229 FF       		.byte	0xff
 406 022a 18       		.uleb128 0x18
 407 022b 27010000 		.4byte	0x127
 408 022f 00       		.byte	0
 409 0230 0F       		.uleb128 0xf
 410 0231 1E010000 		.4byte	0x11e
 411 0235 C3000000 		.4byte	.LLST6
 412 0239 00       		.byte	0
 413 023a 19       		.uleb128 0x19
 414 023b 06000000 		.4byte	.LVL6
ARM GAS  /tmp/cc6c92KN.s 			page 9


 415 023f 5E020000 		.4byte	0x25e
 416 0243 19       		.uleb128 0x19
 417 0244 1C000000 		.4byte	.LVL9
 418 0248 6F020000 		.4byte	0x26f
 419 024c 1A       		.uleb128 0x1a
 420 024d 22000000 		.4byte	.LVL10
 421 0251 80020000 		.4byte	0x280
 422 0255 1B       		.uleb128 0x1b
 423 0256 01       		.uleb128 0x1
 424 0257 50       		.byte	0x50
 425 0258 02       		.uleb128 0x2
 426 0259 74       		.byte	0x74
 427 025a 00       		.sleb128 0
 428 025b 00       		.byte	0
 429 025c 00       		.byte	0
 430 025d 00       		.byte	0
 431 025e 13       		.uleb128 0x13
 432 025f DB000000 		.4byte	.LASF25
 433 0263 01       		.byte	0x1
 434 0264 1F       		.byte	0x1f
 435 0265 7E000000 		.4byte	0x7e
 436 0269 6F020000 		.4byte	0x26f
 437 026d 14       		.uleb128 0x14
 438 026e 00       		.byte	0
 439 026f 13       		.uleb128 0x13
 440 0270 77010000 		.4byte	.LASF26
 441 0274 01       		.byte	0x1
 442 0275 22       		.byte	0x22
 443 0276 7E000000 		.4byte	0x7e
 444 027a 80020000 		.4byte	0x280
 445 027e 14       		.uleb128 0x14
 446 027f 00       		.byte	0
 447 0280 1C       		.uleb128 0x1c
 448 0281 18000000 		.4byte	.LASF34
 449 0285 04       		.byte	0x4
 450 0286 07       		.byte	0x7
 451 0287 1D       		.uleb128 0x1d
 452 0288 65000000 		.4byte	0x65
 453 028c 00       		.byte	0
 454 028d 00       		.byte	0
 455              		.section	.debug_abbrev,"",%progbits
 456              	.Ldebug_abbrev0:
 457 0000 01       		.uleb128 0x1
 458 0001 11       		.uleb128 0x11
 459 0002 01       		.byte	0x1
 460 0003 25       		.uleb128 0x25
 461 0004 0E       		.uleb128 0xe
 462 0005 13       		.uleb128 0x13
 463 0006 0B       		.uleb128 0xb
 464 0007 03       		.uleb128 0x3
 465 0008 0E       		.uleb128 0xe
 466 0009 1B       		.uleb128 0x1b
 467 000a 0E       		.uleb128 0xe
 468 000b 55       		.uleb128 0x55
 469 000c 17       		.uleb128 0x17
 470 000d 11       		.uleb128 0x11
 471 000e 01       		.uleb128 0x1
ARM GAS  /tmp/cc6c92KN.s 			page 10


 472 000f 10       		.uleb128 0x10
 473 0010 17       		.uleb128 0x17
 474 0011 00       		.byte	0
 475 0012 00       		.byte	0
 476 0013 02       		.uleb128 0x2
 477 0014 24       		.uleb128 0x24
 478 0015 00       		.byte	0
 479 0016 0B       		.uleb128 0xb
 480 0017 0B       		.uleb128 0xb
 481 0018 3E       		.uleb128 0x3e
 482 0019 0B       		.uleb128 0xb
 483 001a 03       		.uleb128 0x3
 484 001b 0E       		.uleb128 0xe
 485 001c 00       		.byte	0
 486 001d 00       		.byte	0
 487 001e 03       		.uleb128 0x3
 488 001f 16       		.uleb128 0x16
 489 0020 00       		.byte	0
 490 0021 03       		.uleb128 0x3
 491 0022 0E       		.uleb128 0xe
 492 0023 3A       		.uleb128 0x3a
 493 0024 0B       		.uleb128 0xb
 494 0025 3B       		.uleb128 0x3b
 495 0026 0B       		.uleb128 0xb
 496 0027 49       		.uleb128 0x49
 497 0028 13       		.uleb128 0x13
 498 0029 00       		.byte	0
 499 002a 00       		.byte	0
 500 002b 04       		.uleb128 0x4
 501 002c 24       		.uleb128 0x24
 502 002d 00       		.byte	0
 503 002e 0B       		.uleb128 0xb
 504 002f 0B       		.uleb128 0xb
 505 0030 3E       		.uleb128 0x3e
 506 0031 0B       		.uleb128 0xb
 507 0032 03       		.uleb128 0x3
 508 0033 08       		.uleb128 0x8
 509 0034 00       		.byte	0
 510 0035 00       		.byte	0
 511 0036 05       		.uleb128 0x5
 512 0037 26       		.uleb128 0x26
 513 0038 00       		.byte	0
 514 0039 49       		.uleb128 0x49
 515 003a 13       		.uleb128 0x13
 516 003b 00       		.byte	0
 517 003c 00       		.byte	0
 518 003d 06       		.uleb128 0x6
 519 003e 35       		.uleb128 0x35
 520 003f 00       		.byte	0
 521 0040 49       		.uleb128 0x49
 522 0041 13       		.uleb128 0x13
 523 0042 00       		.byte	0
 524 0043 00       		.byte	0
 525 0044 07       		.uleb128 0x7
 526 0045 13       		.uleb128 0x13
 527 0046 01       		.byte	0x1
 528 0047 0B       		.uleb128 0xb
ARM GAS  /tmp/cc6c92KN.s 			page 11


 529 0048 0B       		.uleb128 0xb
 530 0049 3A       		.uleb128 0x3a
 531 004a 0B       		.uleb128 0xb
 532 004b 3B       		.uleb128 0x3b
 533 004c 05       		.uleb128 0x5
 534 004d 01       		.uleb128 0x1
 535 004e 13       		.uleb128 0x13
 536 004f 00       		.byte	0
 537 0050 00       		.byte	0
 538 0051 08       		.uleb128 0x8
 539 0052 0D       		.uleb128 0xd
 540 0053 00       		.byte	0
 541 0054 03       		.uleb128 0x3
 542 0055 0E       		.uleb128 0xe
 543 0056 3A       		.uleb128 0x3a
 544 0057 0B       		.uleb128 0xb
 545 0058 3B       		.uleb128 0x3b
 546 0059 05       		.uleb128 0x5
 547 005a 49       		.uleb128 0x49
 548 005b 13       		.uleb128 0x13
 549 005c 38       		.uleb128 0x38
 550 005d 0B       		.uleb128 0xb
 551 005e 00       		.byte	0
 552 005f 00       		.byte	0
 553 0060 09       		.uleb128 0x9
 554 0061 16       		.uleb128 0x16
 555 0062 00       		.byte	0
 556 0063 03       		.uleb128 0x3
 557 0064 0E       		.uleb128 0xe
 558 0065 3A       		.uleb128 0x3a
 559 0066 0B       		.uleb128 0xb
 560 0067 3B       		.uleb128 0x3b
 561 0068 05       		.uleb128 0x5
 562 0069 49       		.uleb128 0x49
 563 006a 13       		.uleb128 0x13
 564 006b 00       		.byte	0
 565 006c 00       		.byte	0
 566 006d 0A       		.uleb128 0xa
 567 006e 2E       		.uleb128 0x2e
 568 006f 01       		.byte	0x1
 569 0070 3F       		.uleb128 0x3f
 570 0071 19       		.uleb128 0x19
 571 0072 03       		.uleb128 0x3
 572 0073 08       		.uleb128 0x8
 573 0074 3A       		.uleb128 0x3a
 574 0075 0B       		.uleb128 0xb
 575 0076 3B       		.uleb128 0x3b
 576 0077 0B       		.uleb128 0xb
 577 0078 27       		.uleb128 0x27
 578 0079 19       		.uleb128 0x19
 579 007a 49       		.uleb128 0x49
 580 007b 13       		.uleb128 0x13
 581 007c 20       		.uleb128 0x20
 582 007d 0B       		.uleb128 0xb
 583 007e 01       		.uleb128 0x1
 584 007f 13       		.uleb128 0x13
 585 0080 00       		.byte	0
ARM GAS  /tmp/cc6c92KN.s 			page 12


 586 0081 00       		.byte	0
 587 0082 0B       		.uleb128 0xb
 588 0083 05       		.uleb128 0x5
 589 0084 00       		.byte	0
 590 0085 03       		.uleb128 0x3
 591 0086 08       		.uleb128 0x8
 592 0087 3A       		.uleb128 0x3a
 593 0088 0B       		.uleb128 0xb
 594 0089 3B       		.uleb128 0x3b
 595 008a 0B       		.uleb128 0xb
 596 008b 49       		.uleb128 0x49
 597 008c 13       		.uleb128 0x13
 598 008d 00       		.byte	0
 599 008e 00       		.byte	0
 600 008f 0C       		.uleb128 0xc
 601 0090 05       		.uleb128 0x5
 602 0091 00       		.byte	0
 603 0092 03       		.uleb128 0x3
 604 0093 0E       		.uleb128 0xe
 605 0094 3A       		.uleb128 0x3a
 606 0095 0B       		.uleb128 0xb
 607 0096 3B       		.uleb128 0x3b
 608 0097 0B       		.uleb128 0xb
 609 0098 49       		.uleb128 0x49
 610 0099 13       		.uleb128 0x13
 611 009a 00       		.byte	0
 612 009b 00       		.byte	0
 613 009c 0D       		.uleb128 0xd
 614 009d 2E       		.uleb128 0x2e
 615 009e 00       		.byte	0
 616 009f 3F       		.uleb128 0x3f
 617 00a0 19       		.uleb128 0x19
 618 00a1 03       		.uleb128 0x3
 619 00a2 0E       		.uleb128 0xe
 620 00a3 3A       		.uleb128 0x3a
 621 00a4 0B       		.uleb128 0xb
 622 00a5 3B       		.uleb128 0x3b
 623 00a6 0B       		.uleb128 0xb
 624 00a7 11       		.uleb128 0x11
 625 00a8 01       		.uleb128 0x1
 626 00a9 12       		.uleb128 0x12
 627 00aa 06       		.uleb128 0x6
 628 00ab 40       		.uleb128 0x40
 629 00ac 18       		.uleb128 0x18
 630 00ad 9742     		.uleb128 0x2117
 631 00af 19       		.uleb128 0x19
 632 00b0 00       		.byte	0
 633 00b1 00       		.byte	0
 634 00b2 0E       		.uleb128 0xe
 635 00b3 2E       		.uleb128 0x2e
 636 00b4 01       		.byte	0x1
 637 00b5 31       		.uleb128 0x31
 638 00b6 13       		.uleb128 0x13
 639 00b7 11       		.uleb128 0x11
 640 00b8 01       		.uleb128 0x1
 641 00b9 12       		.uleb128 0x12
 642 00ba 06       		.uleb128 0x6
ARM GAS  /tmp/cc6c92KN.s 			page 13


 643 00bb 40       		.uleb128 0x40
 644 00bc 18       		.uleb128 0x18
 645 00bd 9642     		.uleb128 0x2116
 646 00bf 19       		.uleb128 0x19
 647 00c0 01       		.uleb128 0x1
 648 00c1 13       		.uleb128 0x13
 649 00c2 00       		.byte	0
 650 00c3 00       		.byte	0
 651 00c4 0F       		.uleb128 0xf
 652 00c5 05       		.uleb128 0x5
 653 00c6 00       		.byte	0
 654 00c7 31       		.uleb128 0x31
 655 00c8 13       		.uleb128 0x13
 656 00c9 02       		.uleb128 0x2
 657 00ca 17       		.uleb128 0x17
 658 00cb 00       		.byte	0
 659 00cc 00       		.byte	0
 660 00cd 10       		.uleb128 0x10
 661 00ce 2E       		.uleb128 0x2e
 662 00cf 01       		.byte	0x1
 663 00d0 3F       		.uleb128 0x3f
 664 00d1 19       		.uleb128 0x19
 665 00d2 03       		.uleb128 0x3
 666 00d3 0E       		.uleb128 0xe
 667 00d4 3A       		.uleb128 0x3a
 668 00d5 0B       		.uleb128 0xb
 669 00d6 3B       		.uleb128 0x3b
 670 00d7 0B       		.uleb128 0xb
 671 00d8 49       		.uleb128 0x49
 672 00d9 13       		.uleb128 0x13
 673 00da 11       		.uleb128 0x11
 674 00db 01       		.uleb128 0x1
 675 00dc 12       		.uleb128 0x12
 676 00dd 06       		.uleb128 0x6
 677 00de 40       		.uleb128 0x40
 678 00df 18       		.uleb128 0x18
 679 00e0 9642     		.uleb128 0x2116
 680 00e2 19       		.uleb128 0x19
 681 00e3 01       		.uleb128 0x1
 682 00e4 13       		.uleb128 0x13
 683 00e5 00       		.byte	0
 684 00e6 00       		.byte	0
 685 00e7 11       		.uleb128 0x11
 686 00e8 0B       		.uleb128 0xb
 687 00e9 01       		.byte	0x1
 688 00ea 11       		.uleb128 0x11
 689 00eb 01       		.uleb128 0x1
 690 00ec 12       		.uleb128 0x12
 691 00ed 06       		.uleb128 0x6
 692 00ee 00       		.byte	0
 693 00ef 00       		.byte	0
 694 00f0 12       		.uleb128 0x12
 695 00f1 34       		.uleb128 0x34
 696 00f2 00       		.byte	0
 697 00f3 03       		.uleb128 0x3
 698 00f4 0E       		.uleb128 0xe
 699 00f5 3A       		.uleb128 0x3a
ARM GAS  /tmp/cc6c92KN.s 			page 14


 700 00f6 0B       		.uleb128 0xb
 701 00f7 3B       		.uleb128 0x3b
 702 00f8 0B       		.uleb128 0xb
 703 00f9 49       		.uleb128 0x49
 704 00fa 13       		.uleb128 0x13
 705 00fb 02       		.uleb128 0x2
 706 00fc 17       		.uleb128 0x17
 707 00fd 00       		.byte	0
 708 00fe 00       		.byte	0
 709 00ff 13       		.uleb128 0x13
 710 0100 2E       		.uleb128 0x2e
 711 0101 01       		.byte	0x1
 712 0102 3F       		.uleb128 0x3f
 713 0103 19       		.uleb128 0x19
 714 0104 03       		.uleb128 0x3
 715 0105 0E       		.uleb128 0xe
 716 0106 3A       		.uleb128 0x3a
 717 0107 0B       		.uleb128 0xb
 718 0108 3B       		.uleb128 0x3b
 719 0109 0B       		.uleb128 0xb
 720 010a 49       		.uleb128 0x49
 721 010b 13       		.uleb128 0x13
 722 010c 3C       		.uleb128 0x3c
 723 010d 19       		.uleb128 0x19
 724 010e 01       		.uleb128 0x1
 725 010f 13       		.uleb128 0x13
 726 0110 00       		.byte	0
 727 0111 00       		.byte	0
 728 0112 14       		.uleb128 0x14
 729 0113 18       		.uleb128 0x18
 730 0114 00       		.byte	0
 731 0115 00       		.byte	0
 732 0116 00       		.byte	0
 733 0117 15       		.uleb128 0x15
 734 0118 34       		.uleb128 0x34
 735 0119 00       		.byte	0
 736 011a 03       		.uleb128 0x3
 737 011b 0E       		.uleb128 0xe
 738 011c 3A       		.uleb128 0x3a
 739 011d 0B       		.uleb128 0xb
 740 011e 3B       		.uleb128 0x3b
 741 011f 0B       		.uleb128 0xb
 742 0120 49       		.uleb128 0x49
 743 0121 13       		.uleb128 0x13
 744 0122 00       		.byte	0
 745 0123 00       		.byte	0
 746 0124 16       		.uleb128 0x16
 747 0125 1D       		.uleb128 0x1d
 748 0126 01       		.byte	0x1
 749 0127 31       		.uleb128 0x31
 750 0128 13       		.uleb128 0x13
 751 0129 11       		.uleb128 0x11
 752 012a 01       		.uleb128 0x1
 753 012b 12       		.uleb128 0x12
 754 012c 06       		.uleb128 0x6
 755 012d 58       		.uleb128 0x58
 756 012e 0B       		.uleb128 0xb
ARM GAS  /tmp/cc6c92KN.s 			page 15


 757 012f 59       		.uleb128 0x59
 758 0130 0B       		.uleb128 0xb
 759 0131 01       		.uleb128 0x1
 760 0132 13       		.uleb128 0x13
 761 0133 00       		.byte	0
 762 0134 00       		.byte	0
 763 0135 17       		.uleb128 0x17
 764 0136 05       		.uleb128 0x5
 765 0137 00       		.byte	0
 766 0138 31       		.uleb128 0x31
 767 0139 13       		.uleb128 0x13
 768 013a 1C       		.uleb128 0x1c
 769 013b 05       		.uleb128 0x5
 770 013c 00       		.byte	0
 771 013d 00       		.byte	0
 772 013e 18       		.uleb128 0x18
 773 013f 05       		.uleb128 0x5
 774 0140 00       		.byte	0
 775 0141 31       		.uleb128 0x31
 776 0142 13       		.uleb128 0x13
 777 0143 1C       		.uleb128 0x1c
 778 0144 0B       		.uleb128 0xb
 779 0145 00       		.byte	0
 780 0146 00       		.byte	0
 781 0147 19       		.uleb128 0x19
 782 0148 898201   		.uleb128 0x4109
 783 014b 00       		.byte	0
 784 014c 11       		.uleb128 0x11
 785 014d 01       		.uleb128 0x1
 786 014e 31       		.uleb128 0x31
 787 014f 13       		.uleb128 0x13
 788 0150 00       		.byte	0
 789 0151 00       		.byte	0
 790 0152 1A       		.uleb128 0x1a
 791 0153 898201   		.uleb128 0x4109
 792 0156 01       		.byte	0x1
 793 0157 11       		.uleb128 0x11
 794 0158 01       		.uleb128 0x1
 795 0159 31       		.uleb128 0x31
 796 015a 13       		.uleb128 0x13
 797 015b 00       		.byte	0
 798 015c 00       		.byte	0
 799 015d 1B       		.uleb128 0x1b
 800 015e 8A8201   		.uleb128 0x410a
 801 0161 00       		.byte	0
 802 0162 02       		.uleb128 0x2
 803 0163 18       		.uleb128 0x18
 804 0164 9142     		.uleb128 0x2111
 805 0166 18       		.uleb128 0x18
 806 0167 00       		.byte	0
 807 0168 00       		.byte	0
 808 0169 1C       		.uleb128 0x1c
 809 016a 2E       		.uleb128 0x2e
 810 016b 01       		.byte	0x1
 811 016c 3F       		.uleb128 0x3f
 812 016d 19       		.uleb128 0x19
 813 016e 03       		.uleb128 0x3
ARM GAS  /tmp/cc6c92KN.s 			page 16


 814 016f 0E       		.uleb128 0xe
 815 0170 3A       		.uleb128 0x3a
 816 0171 0B       		.uleb128 0xb
 817 0172 3B       		.uleb128 0x3b
 818 0173 0B       		.uleb128 0xb
 819 0174 27       		.uleb128 0x27
 820 0175 19       		.uleb128 0x19
 821 0176 3C       		.uleb128 0x3c
 822 0177 19       		.uleb128 0x19
 823 0178 00       		.byte	0
 824 0179 00       		.byte	0
 825 017a 1D       		.uleb128 0x1d
 826 017b 05       		.uleb128 0x5
 827 017c 00       		.byte	0
 828 017d 49       		.uleb128 0x49
 829 017e 13       		.uleb128 0x13
 830 017f 00       		.byte	0
 831 0180 00       		.byte	0
 832 0181 00       		.byte	0
 833              		.section	.debug_loc,"",%progbits
 834              	.Ldebug_loc0:
 835              	.LLST0:
 836 0000 20000000 		.4byte	.LVL0
 837 0004 2A000000 		.4byte	.LVL3
 838 0008 0100     		.2byte	0x1
 839 000a 50       		.byte	0x50
 840 000b 2A000000 		.4byte	.LVL3
 841 000f 3A000000 		.4byte	.LFE34
 842 0013 0400     		.2byte	0x4
 843 0015 F3       		.byte	0xf3
 844 0016 01       		.uleb128 0x1
 845 0017 50       		.byte	0x50
 846 0018 9F       		.byte	0x9f
 847 0019 00000000 		.4byte	0
 848 001d 00000000 		.4byte	0
 849              	.LLST1:
 850 0021 20000000 		.4byte	.LVL0
 851 0025 30000000 		.4byte	.LVL4
 852 0029 0100     		.2byte	0x1
 853 002b 51       		.byte	0x51
 854 002c 30000000 		.4byte	.LVL4
 855 0030 3A000000 		.4byte	.LFE34
 856 0034 0400     		.2byte	0x4
 857 0036 F3       		.byte	0xf3
 858 0037 01       		.uleb128 0x1
 859 0038 51       		.byte	0x51
 860 0039 9F       		.byte	0x9f
 861 003a 00000000 		.4byte	0
 862 003e 00000000 		.4byte	0
 863              	.LLST2:
 864 0042 20000000 		.4byte	.LVL0
 865 0046 33000000 		.4byte	.LVL5-1
 866 004a 0100     		.2byte	0x1
 867 004c 52       		.byte	0x52
 868 004d 33000000 		.4byte	.LVL5-1
 869 0051 3A000000 		.4byte	.LFE34
 870 0055 0400     		.2byte	0x4
ARM GAS  /tmp/cc6c92KN.s 			page 17


 871 0057 F3       		.byte	0xf3
 872 0058 01       		.uleb128 0x1
 873 0059 52       		.byte	0x52
 874 005a 9F       		.byte	0x9f
 875 005b 00000000 		.4byte	0
 876 005f 00000000 		.4byte	0
 877              	.LLST3:
 878 0063 20000000 		.4byte	.LVL0
 879 0067 26000000 		.4byte	.LVL1
 880 006b 0100     		.2byte	0x1
 881 006d 53       		.byte	0x53
 882 006e 26000000 		.4byte	.LVL1
 883 0072 3A000000 		.4byte	.LFE34
 884 0076 0400     		.2byte	0x4
 885 0078 F3       		.byte	0xf3
 886 0079 01       		.uleb128 0x1
 887 007a 53       		.byte	0x53
 888 007b 9F       		.byte	0x9f
 889 007c 00000000 		.4byte	0
 890 0080 00000000 		.4byte	0
 891              	.LLST4:
 892 0084 20000000 		.4byte	.LVL0
 893 0088 26000000 		.4byte	.LVL1
 894 008c 0200     		.2byte	0x2
 895 008e 91       		.byte	0x91
 896 008f 00       		.sleb128 0
 897 0090 26000000 		.4byte	.LVL1
 898 0094 28000000 		.4byte	.LVL2
 899 0098 0200     		.2byte	0x2
 900 009a 73       		.byte	0x73
 901 009b 00       		.sleb128 0
 902 009c 28000000 		.4byte	.LVL2
 903 00a0 3A000000 		.4byte	.LFE34
 904 00a4 0200     		.2byte	0x2
 905 00a6 91       		.byte	0x91
 906 00a7 00       		.sleb128 0
 907 00a8 00000000 		.4byte	0
 908 00ac 00000000 		.4byte	0
 909              	.LLST5:
 910 00b0 06000000 		.4byte	.LVL6
 911 00b4 0A000000 		.4byte	.LVL7
 912 00b8 0100     		.2byte	0x1
 913 00ba 50       		.byte	0x50
 914 00bb 00000000 		.4byte	0
 915 00bf 00000000 		.4byte	0
 916              	.LLST6:
 917 00c3 06000000 		.4byte	.LVL6
 918 00c7 0A000000 		.4byte	.LVL7
 919 00cb 0600     		.2byte	0x6
 920 00cd 70       		.byte	0x70
 921 00ce 00       		.sleb128 0
 922 00cf 08       		.byte	0x8
 923 00d0 FF       		.byte	0xff
 924 00d1 1A       		.byte	0x1a
 925 00d2 9F       		.byte	0x9f
 926 00d3 00000000 		.4byte	0
 927 00d7 00000000 		.4byte	0
ARM GAS  /tmp/cc6c92KN.s 			page 18


 928              		.section	.debug_aranges,"",%progbits
 929 0000 24000000 		.4byte	0x24
 930 0004 0200     		.2byte	0x2
 931 0006 00000000 		.4byte	.Ldebug_info0
 932 000a 04       		.byte	0x4
 933 000b 00       		.byte	0
 934 000c 0000     		.2byte	0
 935 000e 0000     		.2byte	0
 936 0010 00000000 		.4byte	.Ltext0
 937 0014 3A000000 		.4byte	.Letext0-.Ltext0
 938 0018 00000000 		.4byte	.LFB35
 939 001c 38000000 		.4byte	.LFE35-.LFB35
 940 0020 00000000 		.4byte	0
 941 0024 00000000 		.4byte	0
 942              		.section	.debug_ranges,"",%progbits
 943              	.Ldebug_ranges0:
 944 0000 00000000 		.4byte	.Ltext0
 945 0004 3A000000 		.4byte	.Letext0
 946 0008 00000000 		.4byte	.LFB35
 947 000c 38000000 		.4byte	.LFE35
 948 0010 00000000 		.4byte	0
 949 0014 00000000 		.4byte	0
 950              		.section	.debug_line,"",%progbits
 951              	.Ldebug_line0:
 952 0000 C8000000 		.section	.debug_str,"MS",%progbits,1
 952      02007800 
 952      00000201 
 952      FB0E0D00 
 952      01010101 
 953              	.LASF18:
 954 0000 50444452 		.ascii	"PDDR\000"
 954      00
 955              	.LASF30:
 956 0005 73657475 		.ascii	"setup\000"
 956      7000
 957              	.LASF5:
 958 000b 75696E74 		.ascii	"uint8_t\000"
 958      385F7400 
 959              	.LASF17:
 960 0013 50444952 		.ascii	"PDIR\000"
 960      00
 961              	.LASF34:
 962 0018 64656C61 		.ascii	"delayms\000"
 962      796D7300 
 963              	.LASF22:
 964 0020 696E5F6D 		.ascii	"in_max\000"
 964      617800
 965              	.LASF24:
 966 0027 6F75745F 		.ascii	"out_max\000"
 966      6D617800 
 967              	.LASF23:
 968 002f 6F75745F 		.ascii	"out_min\000"
 968      6D696E00 
 969              	.LASF19:
 970 0037 50494452 		.ascii	"PIDR\000"
 970      00
 971              	.LASF4:
ARM GAS  /tmp/cc6c92KN.s 			page 19


 972 003c 756E7369 		.ascii	"unsigned char\000"
 972      676E6564 
 972      20636861 
 972      7200
 973              	.LASF13:
 974 004a 50444F52 		.ascii	"PDOR\000"
 974      00
 975              	.LASF9:
 976 004f 6C6F6E67 		.ascii	"long unsigned int\000"
 976      20756E73 
 976      69676E65 
 976      6420696E 
 976      7400
 977              	.LASF7:
 978 0061 73686F72 		.ascii	"short unsigned int\000"
 978      7420756E 
 978      7369676E 
 978      65642069 
 978      6E7400
 979              	.LASF29:
 980 0074 2F686F6D 		.ascii	"/home/xxx/projects/armmke_dev1/firmware\000"
 980      652F7878 
 980      782F7072 
 980      6F6A6563 
 980      74732F61 
 981              	.LASF21:
 982 009c 696E5F6D 		.ascii	"in_min\000"
 982      696E00
 983              	.LASF31:
 984 00a3 6D61696E 		.ascii	"main\000"
 984      00
 985              	.LASF14:
 986 00a8 50534F52 		.ascii	"PSOR\000"
 986      00
 987              	.LASF20:
 988 00ad 4750494F 		.ascii	"GPIO_Type\000"
 988      5F547970 
 988      6500
 989              	.LASF11:
 990 00b7 756E7369 		.ascii	"unsigned int\000"
 990      676E6564 
 990      20696E74 
 990      00
 991              	.LASF10:
 992 00c4 6C6F6E67 		.ascii	"long long unsigned int\000"
 992      206C6F6E 
 992      6720756E 
 992      7369676E 
 992      65642069 
 993              	.LASF25:
 994 00db 6765745F 		.ascii	"get_ADC\000"
 994      41444300 
 995              	.LASF27:
 996 00e3 474E5520 		.ascii	"GNU C 4.9.3 20150529 (prerelease) -mthumb -mcpu=cor"
 996      4320342E 
 996      392E3320 
 996      32303135 
ARM GAS  /tmp/cc6c92KN.s 			page 20


 996      30353239 
 997 0116 7465782D 		.ascii	"tex-m0plus -g -Os -fno-common -ffreestanding -fno-b"
 997      6D30706C 
 997      7573202D 
 997      67202D4F 
 997      73202D66 
 998 0149 75696C74 		.ascii	"uiltin\000"
 998      696E00
 999              	.LASF32:
 1000 0150 6164635F 		.ascii	"adc_val\000"
 1000      76616C00 
 1001              	.LASF12:
 1002 0158 73697A65 		.ascii	"sizetype\000"
 1002      74797065 
 1002      00
 1003              	.LASF33:
 1004 0161 70776D5F 		.ascii	"pwm_val\000"
 1004      76616C00 
 1005              	.LASF3:
 1006 0169 6C6F6E67 		.ascii	"long long int\000"
 1006      206C6F6E 
 1006      6720696E 
 1006      7400
 1007              	.LASF26:
 1008 0177 70776D5F 		.ascii	"pwm_set_amount\000"
 1008      7365745F 
 1008      616D6F75 
 1008      6E7400
 1009              	.LASF28:
 1010 0186 7372632F 		.ascii	"src/main.c\000"
 1010      6D61696E 
 1010      2E6300
 1011              	.LASF1:
 1012 0191 73686F72 		.ascii	"short int\000"
 1012      7420696E 
 1012      7400
 1013              	.LASF6:
 1014 019b 75696E74 		.ascii	"uint16_t\000"
 1014      31365F74 
 1014      00
 1015              	.LASF8:
 1016 01a4 75696E74 		.ascii	"uint32_t\000"
 1016      33325F74 
 1016      00
 1017              	.LASF2:
 1018 01ad 6C6F6E67 		.ascii	"long int\000"
 1018      20696E74 
 1018      00
 1019              	.LASF16:
 1020 01b6 50544F52 		.ascii	"PTOR\000"
 1020      00
 1021              	.LASF0:
 1022 01bb 7369676E 		.ascii	"signed char\000"
 1022      65642063 
 1022      68617200 
 1023              	.LASF15:
 1024 01c7 50434F52 		.ascii	"PCOR\000"
ARM GAS  /tmp/cc6c92KN.s 			page 21


 1024      00
 1025              		.ident	"GCC: (15:4.9.3+svn231177-1) 4.9.3 20150529 (prerelease)"
ARM GAS  /tmp/cc6c92KN.s 			page 22


DEFINED SYMBOLS
                            *ABS*:0000000000000000 main.c
     /tmp/cc6c92KN.s:17     .text:0000000000000000 $t
     /tmp/cc6c92KN.s:22     .text:0000000000000000 setup
     /tmp/cc6c92KN.s:50     .text:000000000000001c $d
     /tmp/cc6c92KN.s:55     .text:0000000000000020 $t
     /tmp/cc6c92KN.s:60     .text:0000000000000020 map
     /tmp/cc6c92KN.s:93     .text.startup:0000000000000000 $t
     /tmp/cc6c92KN.s:98     .text.startup:0000000000000000 main
     /tmp/cc6c92KN.s:146    .text.startup:0000000000000030 $d
                     .debug_frame:0000000000000010 $d

UNDEFINED SYMBOLS
__aeabi_idiv
get_ADC
pwm_set_amount
delayms
