ARM GAS  /tmp/cchve6wD.s 			page 1


   1              		.cpu cortex-m0plus
   2              		.fpu softvfp
   3              		.eabi_attribute 20, 1
   4              		.eabi_attribute 21, 1
   5              		.eabi_attribute 23, 3
   6              		.eabi_attribute 24, 1
   7              		.eabi_attribute 25, 1
   8              		.eabi_attribute 26, 1
   9              		.eabi_attribute 30, 4
  10              		.eabi_attribute 34, 0
  11              		.eabi_attribute 18, 4
  12              		.code	16
  13              		.file	"main.c"
  14              		.text
  15              	.Ltext0:
  16              		.cfi_sections	.debug_frame
  17              		.section	.text.startup,"ax",%progbits
  18              		.align	1
  19              		.global	main
  20              		.code	16
  21              		.thumb_func
  22              		.type	main, %function
  23              	main:
  24              	.LFB33:
  25              		.file 1 "src/main.c"
   1:src/main.c    **** /**
   2:src/main.c    ****  * Main
   3:src/main.c    ****  *
   4:src/main.c    ****  * based on work by Kevin Cuzner
   5:src/main.c    ****  * Modified by meh
   6:src/main.c    ****  */
   7:src/main.c    **** 
   8:src/main.c    ****  #include "MKE04Z4.h"
   9:src/main.c    ****  #include "pit.h"
  10:src/main.c    ****  #include <stdint.h>
  11:src/main.c    **** 
  12:src/main.c    **** 
  13:src/main.c    **** 
  14:src/main.c    **** 
  15:src/main.c    **** 
  16:src/main.c    **** 
  17:src/main.c    **** int main()
  18:src/main.c    **** {
  26              		.loc 1 18 0
  27              		.cfi_startproc
  19:src/main.c    ****     //__enable_irq(); //Whats this for
  20:src/main.c    **** 
  21:src/main.c    ****     GPIOA->PIDR |= 1 << 17;
  28              		.loc 1 21 0
  29 0000 8021     		mov	r1, #128
  18:src/main.c    ****     //__enable_irq(); //Whats this for
  30              		.loc 1 18 0
  31 0002 38B5     		push	{r3, r4, r5, lr}
  32              		.cfi_def_cfa_offset 16
  33              		.cfi_offset 3, -16
  34              		.cfi_offset 4, -12
  35              		.cfi_offset 5, -8
ARM GAS  /tmp/cchve6wD.s 			page 2


  36              		.cfi_offset 14, -4
  37              		.loc 1 21 0
  38 0004 0D4B     		ldr	r3, .L5
  39 0006 8902     		lsl	r1, r1, #10
  40 0008 1C1C     		mov	r4, r3
  41 000a 9A69     		ldr	r2, [r3, #24]
  42 000c 0A43     		orr	r2, r1
  43 000e 9A61     		str	r2, [r3, #24]
  22:src/main.c    ****     GPIOA->PDDR |= 1 << 17;
  44              		.loc 1 22 0
  45 0010 5A69     		ldr	r2, [r3, #20]
  46 0012 0A43     		orr	r2, r1
  47 0014 5A61     		str	r2, [r3, #20]
  23:src/main.c    ****     GPIOA->PSOR |= 1 << 17;
  48              		.loc 1 23 0
  49 0016 5A68     		ldr	r2, [r3, #4]
  50 0018 0A43     		orr	r2, r1
  51 001a 5A60     		str	r2, [r3, #4]
  52              	.L3:
  53              	.LBB2:
  24:src/main.c    **** 
  25:src/main.c    ****     while (1)
  26:src/main.c    ****     {
  27:src/main.c    ****         uint32_t ticks = getTicks();
  54              		.loc 1 27 0
  55 001c FFF7FEFF 		bl	getTicks
  56              	.LVL0:
  57 0020 051C     		mov	r5, r0
  58              	.LVL1:
  59              	.L2:
  28:src/main.c    ****         while ((ticks+1000) > getTicks());
  60              		.loc 1 28 0 discriminator 1
  61 0022 FFF7FEFF 		bl	getTicks
  62              	.LVL2:
  63 0026 FA23     		mov	r3, #250
  64 0028 9B00     		lsl	r3, r3, #2
  65 002a EB18     		add	r3, r5, r3
  66 002c 8342     		cmp	r3, r0
  67 002e F8D8     		bhi	.L2
  29:src/main.c    ****         GPIOA->PTOR |= 1 << 17;
  68              		.loc 1 29 0
  69 0030 8022     		mov	r2, #128
  70 0032 E368     		ldr	r3, [r4, #12]
  71 0034 9202     		lsl	r2, r2, #10
  72 0036 1343     		orr	r3, r2
  73 0038 E360     		str	r3, [r4, #12]
  74              	.LBE2:
  30:src/main.c    **** 
  31:src/main.c    ****         //on every cycle we pet the dog
  32:src/main.c    ****         //NOTE: We cannot use an interrupt to reset the watchdog.
  33:src/main.c    ****         //It causes a hard fault or something that cuases the CPU to reset :(
  34:src/main.c    ****         //__disable_irq();
  35:src/main.c    ****         //WDOG->CNT = 0x02A6;
  36:src/main.c    ****         //WDOG->CNT = 0x80B4;
  37:src/main.c    ****         //__enable_irq();
  38:src/main.c    ****     }
  75              		.loc 1 38 0
ARM GAS  /tmp/cchve6wD.s 			page 3


  76 003a EFE7     		b	.L3
  77              	.L6:
  78              		.align	2
  79              	.L5:
  80 003c 00F00F40 		.word	1074786304
  81              		.cfi_endproc
  82              	.LFE33:
  83              		.size	main, .-main
  84              		.text
  85              	.Letext0:
  86              		.file 2 "include/MKE04Z4.h"
  87              		.file 3 "/usr/lib/gcc/arm-none-eabi/4.9.3/include/stdint-gcc.h"
  88              		.file 4 "include/pit.h"