ARM GAS  /tmp/cchve6wD.s 			page 1


   1              		.cpu cortex-m0plus
   2              		.fpu softvfp
   3              		.eabi_attribute 20, 1
   4              		.eabi_attribute 21, 1
   5              		.eabi_attribute 23, 3
   6              		.eabi_attribute 24, 1
   7              		.eabi_attribute 25, 1
   8              		.eabi_attribute 26, 1
   9              		.eabi_attribute 30, 4
  10              		.eabi_attribute 34, 0
  11              		.eabi_attribute 18, 4
  12              		.code	16
  13              		.file	"main.c"
  14              		.text
  15              	.Ltext0:
  16              		.cfi_sections	.debug_frame
  17              		.section	.text.startup,"ax",%progbits
  18              		.align	1
  19              		.global	main
  20              		.code	16
  21              		.thumb_func
  22              		.type	main, %function
  23              	main:
  24              	.LFB33:
  25              		.file 1 "src/main.c"
   1:src/main.c    **** /**
   2:src/main.c    ****  * Main
   3:src/main.c    ****  *
   4:src/main.c    ****  * based on work by Kevin Cuzner
   5:src/main.c    ****  * Modified by meh
   6:src/main.c    ****  */
   7:src/main.c    **** 
   8:src/main.c    ****  #include "MKE04Z4.h"
   9:src/main.c    ****  #include "pit.h"
  10:src/main.c    ****  #include <stdint.h>
  11:src/main.c    **** 
  12:src/main.c    **** 
  13:src/main.c    **** 
  14:src/main.c    **** 
  15:src/main.c    **** 
  16:src/main.c    **** 
  17:src/main.c    **** int main()
  18:src/main.c    **** {
  26              		.loc 1 18 0
  27              		.cfi_startproc
  19:src/main.c    ****     //__enable_irq(); //Whats this for
  20:src/main.c    **** 
  21:src/main.c    ****     GPIOA->PIDR |= 1 << 17;
  28              		.loc 1 21 0
  29 0000 8021     		mov	r1, #128
  18:src/main.c    ****     //__enable_irq(); //Whats this for
  30              		.loc 1 18 0
  31 0002 38B5     		push	{r3, r4, r5, lr}
  32              		.cfi_def_cfa_offset 16
  33              		.cfi_offset 3, -16
  34              		.cfi_offset 4, -12
  35              		.cfi_offset 5, -8
ARM GAS  /tmp/cchve6wD.s 			page 2


  36              		.cfi_offset 14, -4
  37              		.loc 1 21 0
  38 0004 0D4B     		ldr	r3, .L5
  39 0006 8902     		lsl	r1, r1, #10
  40 0008 1C1C     		mov	r4, r3
  41 000a 9A69     		ldr	r2, [r3, #24]
  42 000c 0A43     		orr	r2, r1
  43 000e 9A61     		str	r2, [r3, #24]
  22:src/main.c    ****     GPIOA->PDDR |= 1 << 17;
  44              		.loc 1 22 0
  45 0010 5A69     		ldr	r2, [r3, #20]
  46 0012 0A43     		orr	r2, r1
  47 0014 5A61     		str	r2, [r3, #20]
  23:src/main.c    ****     GPIOA->PSOR |= 1 << 17;
  48              		.loc 1 23 0
  49 0016 5A68     		ldr	r2, [r3, #4]
  50 0018 0A43     		orr	r2, r1
  51 001a 5A60     		str	r2, [r3, #4]
  52              	.L3:
  53              	.LBB2:
  24:src/main.c    **** 
  25:src/main.c    ****     while (1)
  26:src/main.c    ****     {
  27:src/main.c    ****         uint32_t ticks = getTicks();
  54              		.loc 1 27 0
  55 001c FFF7FEFF 		bl	getTicks
  56              	.LVL0:
  57 0020 051C     		mov	r5, r0
  58              	.LVL1:
  59              	.L2:
  28:src/main.c    ****         while ((ticks+1000) > getTicks());
  60              		.loc 1 28 0 discriminator 1
  61 0022 FFF7FEFF 		bl	getTicks
  62              	.LVL2:
  63 0026 FA23     		mov	r3, #250
  64 0028 9B00     		lsl	r3, r3, #2
  65 002a EB18     		add	r3, r5, r3
  66 002c 8342     		cmp	r3, r0
  67 002e F8D8     		bhi	.L2
  29:src/main.c    ****         GPIOA->PTOR |= 1 << 17;
  68              		.loc 1 29 0
  69 0030 8022     		mov	r2, #128
  70 0032 E368     		ldr	r3, [r4, #12]
  71 0034 9202     		lsl	r2, r2, #10
  72 0036 1343     		orr	r3, r2
  73 0038 E360     		str	r3, [r4, #12]
  74              	.LBE2:
  30:src/main.c    **** 
  31:src/main.c    ****         //on every cycle we pet the dog
  32:src/main.c    ****         //NOTE: We cannot use an interrupt to reset the watchdog.
  33:src/main.c    ****         //It causes a hard fault or something that cuases the CPU to reset :(
  34:src/main.c    ****         //__disable_irq();
  35:src/main.c    ****         //WDOG->CNT = 0x02A6;
  36:src/main.c    ****         //WDOG->CNT = 0x80B4;
  37:src/main.c    ****         //__enable_irq();
  38:src/main.c    ****     }
  75              		.loc 1 38 0
ARM GAS  /tmp/cchve6wD.s 			page 3


  76 003a EFE7     		b	.L3
  77              	.L6:
  78              		.align	2
  79              	.L5:
  80 003c 00F00F40 		.word	1074786304
  81              		.cfi_endproc
  82              	.LFE33:
  83              		.size	main, .-main
  84              		.text
  85              	.Letext0:
  86              		.file 2 "include/MKE04Z4.h"
  87              		.file 3 "/usr/lib/gcc/arm-none-eabi/4.9.3/include/stdint-gcc.h"
  88              		.file 4 "include/pit.h"
  89              		.section	.debug_info,"",%progbits
  90              	.Ldebug_info0:
  91 0000 45010000 		.4byte	0x145
  92 0004 0400     		.2byte	0x4
  93 0006 00000000 		.4byte	.Ldebug_abbrev0
  94 000a 04       		.byte	0x4
  95 000b 01       		.uleb128 0x1
  96 000c 6C000000 		.4byte	.LASF19
  97 0010 01       		.byte	0x1
  98 0011 61000000 		.4byte	.LASF20
  99 0015 4F010000 		.4byte	.LASF21
 100 0019 00000000 		.4byte	.Ldebug_ranges0+0
 101 001d 00000000 		.4byte	0
 102 0021 00000000 		.4byte	.Ldebug_line0
 103 0025 02       		.uleb128 0x2
 104 0026 01       		.byte	0x1
 105 0027 06       		.byte	0x6
 106 0028 22010000 		.4byte	.LASF0
 107 002c 02       		.uleb128 0x2
 108 002d 02       		.byte	0x2
 109 002e 05       		.byte	0x5
 110 002f F2000000 		.4byte	.LASF1
 111 0033 02       		.uleb128 0x2
 112 0034 04       		.byte	0x4
 113 0035 05       		.byte	0x5
 114 0036 E9000000 		.4byte	.LASF2
 115 003a 02       		.uleb128 0x2
 116 003b 08       		.byte	0x8
 117 003c 05       		.byte	0x5
 118 003d 00000000 		.4byte	.LASF3
 119 0041 02       		.uleb128 0x2
 120 0042 01       		.byte	0x1
 121 0043 08       		.byte	0x8
 122 0044 25000000 		.4byte	.LASF4
 123 0048 02       		.uleb128 0x2
 124 0049 02       		.byte	0x2
 125 004a 07       		.byte	0x7
 126 004b 0F010000 		.4byte	.LASF5
 127 004f 03       		.uleb128 0x3
 128 0050 01010000 		.4byte	.LASF17
 129 0054 03       		.byte	0x3
 130 0055 34       		.byte	0x34
 131 0056 5A000000 		.4byte	0x5a
 132 005a 02       		.uleb128 0x2
ARM GAS  /tmp/cchve6wD.s 			page 4


 133 005b 04       		.byte	0x4
 134 005c 07       		.byte	0x7
 135 005d 38000000 		.4byte	.LASF6
 136 0061 02       		.uleb128 0x2
 137 0062 08       		.byte	0x8
 138 0063 07       		.byte	0x7
 139 0064 4A000000 		.4byte	.LASF7
 140 0068 04       		.uleb128 0x4
 141 0069 04       		.byte	0x4
 142 006a 05       		.byte	0x5
 143 006b 696E7400 		.ascii	"int\000"
 144 006f 02       		.uleb128 0x2
 145 0070 04       		.byte	0x4
 146 0071 07       		.byte	0x7
 147 0072 13000000 		.4byte	.LASF8
 148 0076 02       		.uleb128 0x2
 149 0077 04       		.byte	0x4
 150 0078 07       		.byte	0x7
 151 0079 46010000 		.4byte	.LASF9
 152 007d 05       		.uleb128 0x5
 153 007e 82000000 		.4byte	0x82
 154 0082 06       		.uleb128 0x6
 155 0083 4F000000 		.4byte	0x4f
 156 0087 07       		.uleb128 0x7
 157 0088 1C       		.byte	0x1c
 158 0089 02       		.byte	0x2
 159 008a 9804     		.2byte	0x498
 160 008c EC000000 		.4byte	0xec
 161 0090 08       		.uleb128 0x8
 162 0091 0A010000 		.4byte	.LASF10
 163 0095 02       		.byte	0x2
 164 0096 9904     		.2byte	0x499
 165 0098 82000000 		.4byte	0x82
 166 009c 00       		.byte	0
 167 009d 08       		.uleb128 0x8
 168 009e E4000000 		.4byte	.LASF11
 169 00a2 02       		.byte	0x2
 170 00a3 9A04     		.2byte	0x49a
 171 00a5 82000000 		.4byte	0x82
 172 00a9 04       		.byte	0x4
 173 00aa 08       		.uleb128 0x8
 174 00ab 20000000 		.4byte	.LASF12
 175 00af 02       		.byte	0x2
 176 00b0 9B04     		.2byte	0x49b
 177 00b2 82000000 		.4byte	0x82
 178 00b6 08       		.byte	0x8
 179 00b7 08       		.uleb128 0x8
 180 00b8 33000000 		.4byte	.LASF13
 181 00bc 02       		.byte	0x2
 182 00bd 9C04     		.2byte	0x49c
 183 00bf 82000000 		.4byte	0x82
 184 00c3 0C       		.byte	0xc
 185 00c4 08       		.uleb128 0x8
 186 00c5 38010000 		.4byte	.LASF14
 187 00c9 02       		.byte	0x2
 188 00ca 9D04     		.2byte	0x49d
 189 00cc 7D000000 		.4byte	0x7d
ARM GAS  /tmp/cchve6wD.s 			page 5


 190 00d0 10       		.byte	0x10
 191 00d1 08       		.uleb128 0x8
 192 00d2 FC000000 		.4byte	.LASF15
 193 00d6 02       		.byte	0x2
 194 00d7 9E04     		.2byte	0x49e
 195 00d9 82000000 		.4byte	0x82
 196 00dd 14       		.byte	0x14
 197 00de 08       		.uleb128 0x8
 198 00df 0E000000 		.4byte	.LASF16
 199 00e3 02       		.byte	0x2
 200 00e4 9F04     		.2byte	0x49f
 201 00e6 82000000 		.4byte	0x82
 202 00ea 18       		.byte	0x18
 203 00eb 00       		.byte	0
 204 00ec 09       		.uleb128 0x9
 205 00ed 2E010000 		.4byte	.LASF18
 206 00f1 02       		.byte	0x2
 207 00f2 A004     		.2byte	0x4a0
 208 00f4 87000000 		.4byte	0x87
 209 00f8 0A       		.uleb128 0xa
 210 00f9 DF000000 		.4byte	.LASF22
 211 00fd 01       		.byte	0x1
 212 00fe 11       		.byte	0x11
 213 00ff 68000000 		.4byte	0x68
 214 0103 00000000 		.4byte	.LFB33
 215 0107 40000000 		.4byte	.LFE33-.LFB33
 216 010b 01       		.uleb128 0x1
 217 010c 9C       		.byte	0x9c
 218 010d 3B010000 		.4byte	0x13b
 219 0111 0B       		.uleb128 0xb
 220 0112 1C000000 		.4byte	.LBB2
 221 0116 1E000000 		.4byte	.LBE2-.LBB2
 222 011a 0C       		.uleb128 0xc
 223 011b D9000000 		.4byte	.LASF23
 224 011f 01       		.byte	0x1
 225 0120 1B       		.byte	0x1b
 226 0121 4F000000 		.4byte	0x4f
 227 0125 01       		.uleb128 0x1
 228 0126 55       		.byte	0x55
 229 0127 0D       		.uleb128 0xd
 230 0128 20000000 		.4byte	.LVL0
 231 012c 3B010000 		.4byte	0x13b
 232 0130 0D       		.uleb128 0xd
 233 0131 26000000 		.4byte	.LVL2
 234 0135 3B010000 		.4byte	0x13b
 235 0139 00       		.byte	0
 236 013a 00       		.byte	0
 237 013b 0E       		.uleb128 0xe
 238 013c 3D010000 		.4byte	.LASF24
 239 0140 04       		.byte	0x4
 240 0141 05       		.byte	0x5
 241 0142 4F000000 		.4byte	0x4f
 242 0146 0F       		.uleb128 0xf
 243 0147 00       		.byte	0
 244 0148 00       		.byte	0
 245              		.section	.debug_abbrev,"",%progbits
 246              	.Ldebug_abbrev0:
ARM GAS  /tmp/cchve6wD.s 			page 6


 247 0000 01       		.uleb128 0x1
 248 0001 11       		.uleb128 0x11
 249 0002 01       		.byte	0x1
 250 0003 25       		.uleb128 0x25
 251 0004 0E       		.uleb128 0xe
 252 0005 13       		.uleb128 0x13
 253 0006 0B       		.uleb128 0xb
 254 0007 03       		.uleb128 0x3
 255 0008 0E       		.uleb128 0xe
 256 0009 1B       		.uleb128 0x1b
 257 000a 0E       		.uleb128 0xe
 258 000b 55       		.uleb128 0x55
 259 000c 17       		.uleb128 0x17
 260 000d 11       		.uleb128 0x11
 261 000e 01       		.uleb128 0x1
 262 000f 10       		.uleb128 0x10
 263 0010 17       		.uleb128 0x17
 264 0011 00       		.byte	0
 265 0012 00       		.byte	0
 266 0013 02       		.uleb128 0x2
 267 0014 24       		.uleb128 0x24
 268 0015 00       		.byte	0
 269 0016 0B       		.uleb128 0xb
 270 0017 0B       		.uleb128 0xb
 271 0018 3E       		.uleb128 0x3e
 272 0019 0B       		.uleb128 0xb
 273 001a 03       		.uleb128 0x3
 274 001b 0E       		.uleb128 0xe
 275 001c 00       		.byte	0
 276 001d 00       		.byte	0
 277 001e 03       		.uleb128 0x3
 278 001f 16       		.uleb128 0x16
 279 0020 00       		.byte	0
 280 0021 03       		.uleb128 0x3
 281 0022 0E       		.uleb128 0xe
 282 0023 3A       		.uleb128 0x3a
 283 0024 0B       		.uleb128 0xb
 284 0025 3B       		.uleb128 0x3b
 285 0026 0B       		.uleb128 0xb
 286 0027 49       		.uleb128 0x49
 287 0028 13       		.uleb128 0x13
 288 0029 00       		.byte	0
 289 002a 00       		.byte	0
 290 002b 04       		.uleb128 0x4
 291 002c 24       		.uleb128 0x24
 292 002d 00       		.byte	0
 293 002e 0B       		.uleb128 0xb
 294 002f 0B       		.uleb128 0xb
 295 0030 3E       		.uleb128 0x3e
 296 0031 0B       		.uleb128 0xb
 297 0032 03       		.uleb128 0x3
 298 0033 08       		.uleb128 0x8
 299 0034 00       		.byte	0
 300 0035 00       		.byte	0
 301 0036 05       		.uleb128 0x5
 302 0037 26       		.uleb128 0x26
 303 0038 00       		.byte	0
ARM GAS  /tmp/cchve6wD.s 			page 7


 304 0039 49       		.uleb128 0x49
 305 003a 13       		.uleb128 0x13
 306 003b 00       		.byte	0
 307 003c 00       		.byte	0
 308 003d 06       		.uleb128 0x6
 309 003e 35       		.uleb128 0x35
 310 003f 00       		.byte	0
 311 0040 49       		.uleb128 0x49
 312 0041 13       		.uleb128 0x13
 313 0042 00       		.byte	0
 314 0043 00       		.byte	0
 315 0044 07       		.uleb128 0x7
 316 0045 13       		.uleb128 0x13
 317 0046 01       		.byte	0x1
 318 0047 0B       		.uleb128 0xb
 319 0048 0B       		.uleb128 0xb
 320 0049 3A       		.uleb128 0x3a
 321 004a 0B       		.uleb128 0xb
 322 004b 3B       		.uleb128 0x3b
 323 004c 05       		.uleb128 0x5
 324 004d 01       		.uleb128 0x1
 325 004e 13       		.uleb128 0x13
 326 004f 00       		.byte	0
 327 0050 00       		.byte	0
 328 0051 08       		.uleb128 0x8
 329 0052 0D       		.uleb128 0xd
 330 0053 00       		.byte	0
 331 0054 03       		.uleb128 0x3
 332 0055 0E       		.uleb128 0xe
 333 0056 3A       		.uleb128 0x3a
 334 0057 0B       		.uleb128 0xb
 335 0058 3B       		.uleb128 0x3b
 336 0059 05       		.uleb128 0x5
 337 005a 49       		.uleb128 0x49
 338 005b 13       		.uleb128 0x13
 339 005c 38       		.uleb128 0x38
 340 005d 0B       		.uleb128 0xb
 341 005e 00       		.byte	0
 342 005f 00       		.byte	0
 343 0060 09       		.uleb128 0x9
 344 0061 16       		.uleb128 0x16
 345 0062 00       		.byte	0
 346 0063 03       		.uleb128 0x3
 347 0064 0E       		.uleb128 0xe
 348 0065 3A       		.uleb128 0x3a
 349 0066 0B       		.uleb128 0xb
 350 0067 3B       		.uleb128 0x3b
 351 0068 05       		.uleb128 0x5
 352 0069 49       		.uleb128 0x49
 353 006a 13       		.uleb128 0x13
 354 006b 00       		.byte	0
 355 006c 00       		.byte	0
 356 006d 0A       		.uleb128 0xa
 357 006e 2E       		.uleb128 0x2e
 358 006f 01       		.byte	0x1
 359 0070 3F       		.uleb128 0x3f
 360 0071 19       		.uleb128 0x19
ARM GAS  /tmp/cchve6wD.s 			page 8


 361 0072 03       		.uleb128 0x3
 362 0073 0E       		.uleb128 0xe
 363 0074 3A       		.uleb128 0x3a
 364 0075 0B       		.uleb128 0xb
 365 0076 3B       		.uleb128 0x3b
 366 0077 0B       		.uleb128 0xb
 367 0078 49       		.uleb128 0x49
 368 0079 13       		.uleb128 0x13
 369 007a 11       		.uleb128 0x11
 370 007b 01       		.uleb128 0x1
 371 007c 12       		.uleb128 0x12
 372 007d 06       		.uleb128 0x6
 373 007e 40       		.uleb128 0x40
 374 007f 18       		.uleb128 0x18
 375 0080 9742     		.uleb128 0x2117
 376 0082 19       		.uleb128 0x19
 377 0083 01       		.uleb128 0x1
 378 0084 13       		.uleb128 0x13
 379 0085 00       		.byte	0
 380 0086 00       		.byte	0
 381 0087 0B       		.uleb128 0xb
 382 0088 0B       		.uleb128 0xb
 383 0089 01       		.byte	0x1
 384 008a 11       		.uleb128 0x11
 385 008b 01       		.uleb128 0x1
 386 008c 12       		.uleb128 0x12
 387 008d 06       		.uleb128 0x6
 388 008e 00       		.byte	0
 389 008f 00       		.byte	0
 390 0090 0C       		.uleb128 0xc
 391 0091 34       		.uleb128 0x34
 392 0092 00       		.byte	0
 393 0093 03       		.uleb128 0x3
 394 0094 0E       		.uleb128 0xe
 395 0095 3A       		.uleb128 0x3a
 396 0096 0B       		.uleb128 0xb
 397 0097 3B       		.uleb128 0x3b
 398 0098 0B       		.uleb128 0xb
 399 0099 49       		.uleb128 0x49
 400 009a 13       		.uleb128 0x13
 401 009b 02       		.uleb128 0x2
 402 009c 18       		.uleb128 0x18
 403 009d 00       		.byte	0
 404 009e 00       		.byte	0
 405 009f 0D       		.uleb128 0xd
 406 00a0 898201   		.uleb128 0x4109
 407 00a3 00       		.byte	0
 408 00a4 11       		.uleb128 0x11
 409 00a5 01       		.uleb128 0x1
 410 00a6 31       		.uleb128 0x31
 411 00a7 13       		.uleb128 0x13
 412 00a8 00       		.byte	0
 413 00a9 00       		.byte	0
 414 00aa 0E       		.uleb128 0xe
 415 00ab 2E       		.uleb128 0x2e
 416 00ac 01       		.byte	0x1
 417 00ad 3F       		.uleb128 0x3f
ARM GAS  /tmp/cchve6wD.s 			page 9


 418 00ae 19       		.uleb128 0x19
 419 00af 03       		.uleb128 0x3
 420 00b0 0E       		.uleb128 0xe
 421 00b1 3A       		.uleb128 0x3a
 422 00b2 0B       		.uleb128 0xb
 423 00b3 3B       		.uleb128 0x3b
 424 00b4 0B       		.uleb128 0xb
 425 00b5 49       		.uleb128 0x49
 426 00b6 13       		.uleb128 0x13
 427 00b7 3C       		.uleb128 0x3c
 428 00b8 19       		.uleb128 0x19
 429 00b9 00       		.byte	0
 430 00ba 00       		.byte	0
 431 00bb 0F       		.uleb128 0xf
 432 00bc 18       		.uleb128 0x18
 433 00bd 00       		.byte	0
 434 00be 00       		.byte	0
 435 00bf 00       		.byte	0
 436 00c0 00       		.byte	0
 437              		.section	.debug_aranges,"",%progbits
 438 0000 1C000000 		.4byte	0x1c
 439 0004 0200     		.2byte	0x2
 440 0006 00000000 		.4byte	.Ldebug_info0
 441 000a 04       		.byte	0x4
 442 000b 00       		.byte	0
 443 000c 0000     		.2byte	0
 444 000e 0000     		.2byte	0
 445 0010 00000000 		.4byte	.LFB33
 446 0014 40000000 		.4byte	.LFE33-.LFB33
 447 0018 00000000 		.4byte	0
 448 001c 00000000 		.4byte	0
 449              		.section	.debug_ranges,"",%progbits
 450              	.Ldebug_ranges0:
 451 0000 00000000 		.4byte	.LFB33
 452 0004 40000000 		.4byte	.LFE33
 453 0008 00000000 		.4byte	0
 454 000c 00000000 		.4byte	0
 455              		.section	.debug_line,"",%progbits
 456              	.Ldebug_line0:
 457 0000 9C000000 		.section	.debug_str,"MS",%progbits,1
 457      02007800 
 457      00000201 
 457      FB0E0D00 
 457      01010101 
 458              	.LASF3:
 459 0000 6C6F6E67 		.ascii	"long long int\000"
 459      206C6F6E 
 459      6720696E 
 459      7400
 460              	.LASF16:
 461 000e 50494452 		.ascii	"PIDR\000"
 461      00
 462              	.LASF8:
 463 0013 756E7369 		.ascii	"unsigned int\000"
 463      676E6564 
 463      20696E74 
 463      00
ARM GAS  /tmp/cchve6wD.s 			page 10


 464              	.LASF12:
 465 0020 50434F52 		.ascii	"PCOR\000"
 465      00
 466              	.LASF4:
 467 0025 756E7369 		.ascii	"unsigned char\000"
 467      676E6564 
 467      20636861 
 467      7200
 468              	.LASF13:
 469 0033 50544F52 		.ascii	"PTOR\000"
 469      00
 470              	.LASF6:
 471 0038 6C6F6E67 		.ascii	"long unsigned int\000"
 471      20756E73 
 471      69676E65 
 471      6420696E 
 471      7400
 472              	.LASF7:
 473 004a 6C6F6E67 		.ascii	"long long unsigned int\000"
 473      206C6F6E 
 473      6720756E 
 473      7369676E 
 473      65642069 
 474              	.LASF20:
 475 0061 7372632F 		.ascii	"src/main.c\000"
 475      6D61696E 
 475      2E6300
 476              	.LASF19:
 477 006c 474E5520 		.ascii	"GNU C 4.9.3 20150529 (prerelease) -mthumb -mcpu=cor"
 477      4320342E 
 477      392E3320 
 477      32303135 
 477      30353239 
 478 009f 7465782D 		.ascii	"tex-m0plus -g -Os -fno-common -ffreestanding -fno-b"
 478      6D30706C 
 478      7573202D 
 478      67202D4F 
 478      73202D66 
 479 00d2 75696C74 		.ascii	"uiltin\000"
 479      696E00
 480              	.LASF23:
 481 00d9 7469636B 		.ascii	"ticks\000"
 481      7300
 482              	.LASF22:
 483 00df 6D61696E 		.ascii	"main\000"
 483      00
 484              	.LASF11:
 485 00e4 50534F52 		.ascii	"PSOR\000"
 485      00
 486              	.LASF2:
 487 00e9 6C6F6E67 		.ascii	"long int\000"
 487      20696E74 
 487      00
 488              	.LASF1:
 489 00f2 73686F72 		.ascii	"short int\000"
 489      7420696E 
 489      7400
ARM GAS  /tmp/cchve6wD.s 			page 11


 490              	.LASF15:
 491 00fc 50444452 		.ascii	"PDDR\000"
 491      00
 492              	.LASF17:
 493 0101 75696E74 		.ascii	"uint32_t\000"
 493      33325F74 
 493      00
 494              	.LASF10:
 495 010a 50444F52 		.ascii	"PDOR\000"
 495      00
 496              	.LASF5:
 497 010f 73686F72 		.ascii	"short unsigned int\000"
 497      7420756E 
 497      7369676E 
 497      65642069 
 497      6E7400
 498              	.LASF0:
 499 0122 7369676E 		.ascii	"signed char\000"
 499      65642063 
 499      68617200 
 500              	.LASF18:
 501 012e 4750494F 		.ascii	"GPIO_Type\000"
 501      5F547970 
 501      6500
 502              	.LASF14:
 503 0138 50444952 		.ascii	"PDIR\000"
 503      00
 504              	.LASF24:
 505 013d 67657454 		.ascii	"getTicks\000"
 505      69636B73 
 505      00
 506              	.LASF9:
 507 0146 73697A65 		.ascii	"sizetype\000"
 507      74797065 
 507      00
 508              	.LASF21:
 509 014f 2F686F6D 		.ascii	"/home/xxx/projects/armmke_dev1/firmware\000"
 509      652F7878 
 509      782F7072 
 509      6F6A6563 
 509      74732F61 
 510              		.ident	"GCC: (15:4.9.3+svn231177-1) 4.9.3 20150529 (prerelease)"
ARM GAS  /tmp/cchve6wD.s 			page 12


DEFINED SYMBOLS
                            *ABS*:0000000000000000 main.c
     /tmp/cchve6wD.s:18     .text.startup:0000000000000000 $t
     /tmp/cchve6wD.s:23     .text.startup:0000000000000000 main
     /tmp/cchve6wD.s:80     .text.startup:000000000000003c $d
                     .debug_frame:0000000000000010 $d

UNDEFINED SYMBOLS
getTicks
