ARM GAS  /tmp/ccftaGFW.s 			page 1


   1              		.cpu cortex-m0plus
   2              		.fpu softvfp
   3              		.eabi_attribute 20, 1
   4              		.eabi_attribute 21, 1
   5              		.eabi_attribute 23, 3
   6              		.eabi_attribute 24, 1
   7              		.eabi_attribute 25, 1
   8              		.eabi_attribute 26, 1
   9              		.eabi_attribute 30, 4
  10              		.eabi_attribute 34, 0
  11              		.eabi_attribute 18, 4
  12              		.code	16
  13              		.file	"main.c"
  14              		.text
  15              	.Ltext0:
  16              		.cfi_sections	.debug_frame
  17              		.align	1
  18              		.global	setup
  19              		.code	16
  20              		.thumb_func
  21              		.type	setup, %function
  22              	setup:
  23              	.LFB33:
  24              		.file 1 "src/main.c"
   1:src/main.c    **** /**
   2:src/main.c    ****  * Main
   3:src/main.c    ****  *
   4:src/main.c    ****  * based on work by Kevin Cuzner
   5:src/main.c    ****  * Modified by meh
   6:src/main.c    ****  */
   7:src/main.c    **** 
   8:src/main.c    ****  #include "MKE04Z4.h"
   9:src/main.c    ****  #include "pit.h"
  10:src/main.c    ****  #include <stdint.h>
  11:src/main.c    **** 
  12:src/main.c    **** 
  13:src/main.c    **** 
  14:src/main.c    **** void setup()
  15:src/main.c    **** {
  25              		.loc 1 15 0
  26              		.cfi_startproc
  16:src/main.c    ****     GPIOA->PIDR |= 1 << 17;
  27              		.loc 1 16 0
  28 0000 8021     		mov	r1, #128
  29 0002 064B     		ldr	r3, .L2
  30 0004 8902     		lsl	r1, r1, #10
  31 0006 9A69     		ldr	r2, [r3, #24]
  17:src/main.c    ****     GPIOA->PDDR |= 1 << 17;
  18:src/main.c    ****     GPIOA->PSOR |= 1 << 17;
  19:src/main.c    **** }
  32              		.loc 1 19 0
  33              		@ sp needed
  16:src/main.c    ****     GPIOA->PIDR |= 1 << 17;
  34              		.loc 1 16 0
  35 0008 0A43     		orr	r2, r1
  36 000a 9A61     		str	r2, [r3, #24]
  17:src/main.c    ****     GPIOA->PDDR |= 1 << 17;
ARM GAS  /tmp/ccftaGFW.s 			page 2


  37              		.loc 1 17 0
  38 000c 5A69     		ldr	r2, [r3, #20]
  39 000e 0A43     		orr	r2, r1
  40 0010 5A61     		str	r2, [r3, #20]
  18:src/main.c    **** }
  41              		.loc 1 18 0
  42 0012 5A68     		ldr	r2, [r3, #4]
  43 0014 0A43     		orr	r2, r1
  44 0016 5A60     		str	r2, [r3, #4]
  45              		.loc 1 19 0
  46 0018 7047     		bx	lr
  47              	.L3:
  48 001a C046     		.align	2
  49              	.L2:
  50 001c 00F00F40 		.word	1074786304
  51              		.cfi_endproc
  52              	.LFE33:
  53              		.size	setup, .-setup
  54              		.section	.text.startup,"ax",%progbits
  55              		.align	1
  56              		.global	main
  57              		.code	16
  58              		.thumb_func
  59              		.type	main, %function
  60              	main:
  61              	.LFB34:
  20:src/main.c    **** 
  21:src/main.c    **** 
  22:src/main.c    **** int main()
  23:src/main.c    **** {
  62              		.loc 1 23 0
  63              		.cfi_startproc
  64 0000 08B5     		push	{r3, lr}
  65              		.cfi_def_cfa_offset 8
  66              		.cfi_offset 3, -8
  67              		.cfi_offset 14, -4
  68              	.L5:
  69              	.LBB2:
  24:src/main.c    ****     while (1)
  25:src/main.c    ****     {
  26:src/main.c    ****         uint8_t adc_val = get_ADC();
  70              		.loc 1 26 0 discriminator 1
  71 0002 FFF7FEFF 		bl	get_ADC
  72              	.LVL0:
  73 0006 C0B2     		uxtb	r0, r0
  27:src/main.c    ****         delayms(adc_val);
  74              		.loc 1 27 0 discriminator 1
  75 0008 FFF7FEFF 		bl	delayms
  76              	.LVL1:
  28:src/main.c    ****         GPIOA->PTOR |= 1 << 17;
  77              		.loc 1 28 0 discriminator 1
  78 000c 8021     		mov	r1, #128
  79 000e 034A     		ldr	r2, .L7
  80 0010 8902     		lsl	r1, r1, #10
  81 0012 D368     		ldr	r3, [r2, #12]
  82 0014 0B43     		orr	r3, r1
  83 0016 D360     		str	r3, [r2, #12]
ARM GAS  /tmp/ccftaGFW.s 			page 3


  84              	.LBE2:
  29:src/main.c    ****     }
  85              		.loc 1 29 0 discriminator 1
  86 0018 F3E7     		b	.L5
  87              	.L8:
  88 001a C046     		.align	2
  89              	.L7:
  90 001c 00F00F40 		.word	1074786304
  91              		.cfi_endproc
  92              	.LFE34:
  93              		.size	main, .-main
  94              		.text
  95              	.Letext0:
  96              		.file 2 "/usr/lib/gcc/arm-none-eabi/4.9.3/include/stdint-gcc.h"
  97              		.file 3 "include/MKE04Z4.h"
  98              		.file 4 "include/pit.h"
  99              		.section	.debug_info,"",%progbits
 100              	.Ldebug_info0:
 101 0000 85010000 		.4byte	0x185
 102 0004 0400     		.2byte	0x4
 103 0006 00000000 		.4byte	.Ldebug_abbrev0
 104 000a 04       		.byte	0x4
 105 000b 01       		.uleb128 0x1
 106 000c 6C000000 		.4byte	.LASF21
 107 0010 01       		.byte	0x1
 108 0011 61000000 		.4byte	.LASF22
 109 0015 66010000 		.4byte	.LASF23
 110 0019 00000000 		.4byte	.Ldebug_ranges0+0
 111 001d 00000000 		.4byte	0
 112 0021 00000000 		.4byte	.Ldebug_line0
 113 0025 02       		.uleb128 0x2
 114 0026 01       		.byte	0x1
 115 0027 06       		.byte	0x6
 116 0028 32010000 		.4byte	.LASF0
 117 002c 02       		.uleb128 0x2
 118 002d 02       		.byte	0x2
 119 002e 05       		.byte	0x5
 120 002f 02010000 		.4byte	.LASF1
 121 0033 02       		.uleb128 0x2
 122 0034 04       		.byte	0x4
 123 0035 05       		.byte	0x5
 124 0036 F9000000 		.4byte	.LASF2
 125 003a 02       		.uleb128 0x2
 126 003b 08       		.byte	0x8
 127 003c 05       		.byte	0x5
 128 003d 00000000 		.4byte	.LASF3
 129 0041 03       		.uleb128 0x3
 130 0042 D9000000 		.4byte	.LASF6
 131 0046 02       		.byte	0x2
 132 0047 2E       		.byte	0x2e
 133 0048 4C000000 		.4byte	0x4c
 134 004c 02       		.uleb128 0x2
 135 004d 01       		.byte	0x1
 136 004e 08       		.byte	0x8
 137 004f E1000000 		.4byte	.LASF4
 138 0053 02       		.uleb128 0x2
 139 0054 02       		.byte	0x2
ARM GAS  /tmp/ccftaGFW.s 			page 4


 140 0055 07       		.byte	0x7
 141 0056 1F010000 		.4byte	.LASF5
 142 005a 03       		.uleb128 0x3
 143 005b 11010000 		.4byte	.LASF7
 144 005f 02       		.byte	0x2
 145 0060 34       		.byte	0x34
 146 0061 65000000 		.4byte	0x65
 147 0065 02       		.uleb128 0x2
 148 0066 04       		.byte	0x4
 149 0067 07       		.byte	0x7
 150 0068 38000000 		.4byte	.LASF8
 151 006c 02       		.uleb128 0x2
 152 006d 08       		.byte	0x8
 153 006e 07       		.byte	0x7
 154 006f 4A000000 		.4byte	.LASF9
 155 0073 04       		.uleb128 0x4
 156 0074 04       		.byte	0x4
 157 0075 05       		.byte	0x5
 158 0076 696E7400 		.ascii	"int\000"
 159 007a 02       		.uleb128 0x2
 160 007b 04       		.byte	0x4
 161 007c 07       		.byte	0x7
 162 007d 13000000 		.4byte	.LASF10
 163 0081 02       		.uleb128 0x2
 164 0082 04       		.byte	0x4
 165 0083 07       		.byte	0x7
 166 0084 5D010000 		.4byte	.LASF11
 167 0088 05       		.uleb128 0x5
 168 0089 8D000000 		.4byte	0x8d
 169 008d 06       		.uleb128 0x6
 170 008e 5A000000 		.4byte	0x5a
 171 0092 07       		.uleb128 0x7
 172 0093 1C       		.byte	0x1c
 173 0094 03       		.byte	0x3
 174 0095 9804     		.2byte	0x498
 175 0097 F7000000 		.4byte	0xf7
 176 009b 08       		.uleb128 0x8
 177 009c 1A010000 		.4byte	.LASF12
 178 00a0 03       		.byte	0x3
 179 00a1 9904     		.2byte	0x499
 180 00a3 8D000000 		.4byte	0x8d
 181 00a7 00       		.byte	0
 182 00a8 08       		.uleb128 0x8
 183 00a9 F4000000 		.4byte	.LASF13
 184 00ad 03       		.byte	0x3
 185 00ae 9A04     		.2byte	0x49a
 186 00b0 8D000000 		.4byte	0x8d
 187 00b4 04       		.byte	0x4
 188 00b5 08       		.uleb128 0x8
 189 00b6 20000000 		.4byte	.LASF14
 190 00ba 03       		.byte	0x3
 191 00bb 9B04     		.2byte	0x49b
 192 00bd 8D000000 		.4byte	0x8d
 193 00c1 08       		.byte	0x8
 194 00c2 08       		.uleb128 0x8
 195 00c3 25000000 		.4byte	.LASF15
 196 00c7 03       		.byte	0x3
ARM GAS  /tmp/ccftaGFW.s 			page 5


 197 00c8 9C04     		.2byte	0x49c
 198 00ca 8D000000 		.4byte	0x8d
 199 00ce 0C       		.byte	0xc
 200 00cf 08       		.uleb128 0x8
 201 00d0 50010000 		.4byte	.LASF16
 202 00d4 03       		.byte	0x3
 203 00d5 9D04     		.2byte	0x49d
 204 00d7 88000000 		.4byte	0x88
 205 00db 10       		.byte	0x10
 206 00dc 08       		.uleb128 0x8
 207 00dd 0C010000 		.4byte	.LASF17
 208 00e1 03       		.byte	0x3
 209 00e2 9E04     		.2byte	0x49e
 210 00e4 8D000000 		.4byte	0x8d
 211 00e8 14       		.byte	0x14
 212 00e9 08       		.uleb128 0x8
 213 00ea 0E000000 		.4byte	.LASF18
 214 00ee 03       		.byte	0x3
 215 00ef 9F04     		.2byte	0x49f
 216 00f1 8D000000 		.4byte	0x8d
 217 00f5 18       		.byte	0x18
 218 00f6 00       		.byte	0
 219 00f7 09       		.uleb128 0x9
 220 00f8 3E010000 		.4byte	.LASF19
 221 00fc 03       		.byte	0x3
 222 00fd A004     		.2byte	0x4a0
 223 00ff 92000000 		.4byte	0x92
 224 0103 0A       		.uleb128 0xa
 225 0104 2A000000 		.4byte	.LASF24
 226 0108 01       		.byte	0x1
 227 0109 0E       		.byte	0xe
 228 010a 00000000 		.4byte	.LFB33
 229 010e 20000000 		.4byte	.LFE33-.LFB33
 230 0112 01       		.uleb128 0x1
 231 0113 9C       		.byte	0x9c
 232 0114 0B       		.uleb128 0xb
 233 0115 EF000000 		.4byte	.LASF25
 234 0119 01       		.byte	0x1
 235 011a 16       		.byte	0x16
 236 011b 73000000 		.4byte	0x73
 237 011f 00000000 		.4byte	.LFB34
 238 0123 20000000 		.4byte	.LFE34-.LFB34
 239 0127 01       		.uleb128 0x1
 240 0128 9C       		.byte	0x9c
 241 0129 6A010000 		.4byte	0x16a
 242 012d 0C       		.uleb128 0xc
 243 012e 02000000 		.4byte	.LBB2
 244 0132 16000000 		.4byte	.LBE2-.LBB2
 245 0136 0D       		.uleb128 0xd
 246 0137 55010000 		.4byte	.LASF26
 247 013b 01       		.byte	0x1
 248 013c 1A       		.byte	0x1a
 249 013d 41000000 		.4byte	0x41
 250 0141 00000000 		.4byte	.LLST0
 251 0145 0E       		.uleb128 0xe
 252 0146 30000000 		.4byte	.LASF20
 253 014a 01       		.byte	0x1
ARM GAS  /tmp/ccftaGFW.s 			page 6


 254 014b 1A       		.byte	0x1a
 255 014c 73000000 		.4byte	0x73
 256 0150 56010000 		.4byte	0x156
 257 0154 0F       		.uleb128 0xf
 258 0155 00       		.byte	0
 259 0156 10       		.uleb128 0x10
 260 0157 06000000 		.4byte	.LVL0
 261 015b 6A010000 		.4byte	0x16a
 262 015f 10       		.uleb128 0x10
 263 0160 0C000000 		.4byte	.LVL1
 264 0164 7B010000 		.4byte	0x17b
 265 0168 00       		.byte	0
 266 0169 00       		.byte	0
 267 016a 0E       		.uleb128 0xe
 268 016b 30000000 		.4byte	.LASF20
 269 016f 01       		.byte	0x1
 270 0170 1A       		.byte	0x1a
 271 0171 73000000 		.4byte	0x73
 272 0175 7B010000 		.4byte	0x17b
 273 0179 0F       		.uleb128 0xf
 274 017a 00       		.byte	0
 275 017b 11       		.uleb128 0x11
 276 017c 48010000 		.4byte	.LASF27
 277 0180 04       		.byte	0x4
 278 0181 07       		.byte	0x7
 279 0182 12       		.uleb128 0x12
 280 0183 5A000000 		.4byte	0x5a
 281 0187 00       		.byte	0
 282 0188 00       		.byte	0
 283              		.section	.debug_abbrev,"",%progbits
 284              	.Ldebug_abbrev0:
 285 0000 01       		.uleb128 0x1
 286 0001 11       		.uleb128 0x11
 287 0002 01       		.byte	0x1
 288 0003 25       		.uleb128 0x25
 289 0004 0E       		.uleb128 0xe
 290 0005 13       		.uleb128 0x13
 291 0006 0B       		.uleb128 0xb
 292 0007 03       		.uleb128 0x3
 293 0008 0E       		.uleb128 0xe
 294 0009 1B       		.uleb128 0x1b
 295 000a 0E       		.uleb128 0xe
 296 000b 55       		.uleb128 0x55
 297 000c 17       		.uleb128 0x17
 298 000d 11       		.uleb128 0x11
 299 000e 01       		.uleb128 0x1
 300 000f 10       		.uleb128 0x10
 301 0010 17       		.uleb128 0x17
 302 0011 00       		.byte	0
 303 0012 00       		.byte	0
 304 0013 02       		.uleb128 0x2
 305 0014 24       		.uleb128 0x24
 306 0015 00       		.byte	0
 307 0016 0B       		.uleb128 0xb
 308 0017 0B       		.uleb128 0xb
 309 0018 3E       		.uleb128 0x3e
 310 0019 0B       		.uleb128 0xb
ARM GAS  /tmp/ccftaGFW.s 			page 7


 311 001a 03       		.uleb128 0x3
 312 001b 0E       		.uleb128 0xe
 313 001c 00       		.byte	0
 314 001d 00       		.byte	0
 315 001e 03       		.uleb128 0x3
 316 001f 16       		.uleb128 0x16
 317 0020 00       		.byte	0
 318 0021 03       		.uleb128 0x3
 319 0022 0E       		.uleb128 0xe
 320 0023 3A       		.uleb128 0x3a
 321 0024 0B       		.uleb128 0xb
 322 0025 3B       		.uleb128 0x3b
 323 0026 0B       		.uleb128 0xb
 324 0027 49       		.uleb128 0x49
 325 0028 13       		.uleb128 0x13
 326 0029 00       		.byte	0
 327 002a 00       		.byte	0
 328 002b 04       		.uleb128 0x4
 329 002c 24       		.uleb128 0x24
 330 002d 00       		.byte	0
 331 002e 0B       		.uleb128 0xb
 332 002f 0B       		.uleb128 0xb
 333 0030 3E       		.uleb128 0x3e
 334 0031 0B       		.uleb128 0xb
 335 0032 03       		.uleb128 0x3
 336 0033 08       		.uleb128 0x8
 337 0034 00       		.byte	0
 338 0035 00       		.byte	0
 339 0036 05       		.uleb128 0x5
 340 0037 26       		.uleb128 0x26
 341 0038 00       		.byte	0
 342 0039 49       		.uleb128 0x49
 343 003a 13       		.uleb128 0x13
 344 003b 00       		.byte	0
 345 003c 00       		.byte	0
 346 003d 06       		.uleb128 0x6
 347 003e 35       		.uleb128 0x35
 348 003f 00       		.byte	0
 349 0040 49       		.uleb128 0x49
 350 0041 13       		.uleb128 0x13
 351 0042 00       		.byte	0
 352 0043 00       		.byte	0
 353 0044 07       		.uleb128 0x7
 354 0045 13       		.uleb128 0x13
 355 0046 01       		.byte	0x1
 356 0047 0B       		.uleb128 0xb
 357 0048 0B       		.uleb128 0xb
 358 0049 3A       		.uleb128 0x3a
 359 004a 0B       		.uleb128 0xb
 360 004b 3B       		.uleb128 0x3b
 361 004c 05       		.uleb128 0x5
 362 004d 01       		.uleb128 0x1
 363 004e 13       		.uleb128 0x13
 364 004f 00       		.byte	0
 365 0050 00       		.byte	0
 366 0051 08       		.uleb128 0x8
 367 0052 0D       		.uleb128 0xd
ARM GAS  /tmp/ccftaGFW.s 			page 8


 368 0053 00       		.byte	0
 369 0054 03       		.uleb128 0x3
 370 0055 0E       		.uleb128 0xe
 371 0056 3A       		.uleb128 0x3a
 372 0057 0B       		.uleb128 0xb
 373 0058 3B       		.uleb128 0x3b
 374 0059 05       		.uleb128 0x5
 375 005a 49       		.uleb128 0x49
 376 005b 13       		.uleb128 0x13
 377 005c 38       		.uleb128 0x38
 378 005d 0B       		.uleb128 0xb
 379 005e 00       		.byte	0
 380 005f 00       		.byte	0
 381 0060 09       		.uleb128 0x9
 382 0061 16       		.uleb128 0x16
 383 0062 00       		.byte	0
 384 0063 03       		.uleb128 0x3
 385 0064 0E       		.uleb128 0xe
 386 0065 3A       		.uleb128 0x3a
 387 0066 0B       		.uleb128 0xb
 388 0067 3B       		.uleb128 0x3b
 389 0068 05       		.uleb128 0x5
 390 0069 49       		.uleb128 0x49
 391 006a 13       		.uleb128 0x13
 392 006b 00       		.byte	0
 393 006c 00       		.byte	0
 394 006d 0A       		.uleb128 0xa
 395 006e 2E       		.uleb128 0x2e
 396 006f 00       		.byte	0
 397 0070 3F       		.uleb128 0x3f
 398 0071 19       		.uleb128 0x19
 399 0072 03       		.uleb128 0x3
 400 0073 0E       		.uleb128 0xe
 401 0074 3A       		.uleb128 0x3a
 402 0075 0B       		.uleb128 0xb
 403 0076 3B       		.uleb128 0x3b
 404 0077 0B       		.uleb128 0xb
 405 0078 11       		.uleb128 0x11
 406 0079 01       		.uleb128 0x1
 407 007a 12       		.uleb128 0x12
 408 007b 06       		.uleb128 0x6
 409 007c 40       		.uleb128 0x40
 410 007d 18       		.uleb128 0x18
 411 007e 9742     		.uleb128 0x2117
 412 0080 19       		.uleb128 0x19
 413 0081 00       		.byte	0
 414 0082 00       		.byte	0
 415 0083 0B       		.uleb128 0xb
 416 0084 2E       		.uleb128 0x2e
 417 0085 01       		.byte	0x1
 418 0086 3F       		.uleb128 0x3f
 419 0087 19       		.uleb128 0x19
 420 0088 03       		.uleb128 0x3
 421 0089 0E       		.uleb128 0xe
 422 008a 3A       		.uleb128 0x3a
 423 008b 0B       		.uleb128 0xb
 424 008c 3B       		.uleb128 0x3b
ARM GAS  /tmp/ccftaGFW.s 			page 9


 425 008d 0B       		.uleb128 0xb
 426 008e 49       		.uleb128 0x49
 427 008f 13       		.uleb128 0x13
 428 0090 11       		.uleb128 0x11
 429 0091 01       		.uleb128 0x1
 430 0092 12       		.uleb128 0x12
 431 0093 06       		.uleb128 0x6
 432 0094 40       		.uleb128 0x40
 433 0095 18       		.uleb128 0x18
 434 0096 9742     		.uleb128 0x2117
 435 0098 19       		.uleb128 0x19
 436 0099 01       		.uleb128 0x1
 437 009a 13       		.uleb128 0x13
 438 009b 00       		.byte	0
 439 009c 00       		.byte	0
 440 009d 0C       		.uleb128 0xc
 441 009e 0B       		.uleb128 0xb
 442 009f 01       		.byte	0x1
 443 00a0 11       		.uleb128 0x11
 444 00a1 01       		.uleb128 0x1
 445 00a2 12       		.uleb128 0x12
 446 00a3 06       		.uleb128 0x6
 447 00a4 00       		.byte	0
 448 00a5 00       		.byte	0
 449 00a6 0D       		.uleb128 0xd
 450 00a7 34       		.uleb128 0x34
 451 00a8 00       		.byte	0
 452 00a9 03       		.uleb128 0x3
 453 00aa 0E       		.uleb128 0xe
 454 00ab 3A       		.uleb128 0x3a
 455 00ac 0B       		.uleb128 0xb
 456 00ad 3B       		.uleb128 0x3b
 457 00ae 0B       		.uleb128 0xb
 458 00af 49       		.uleb128 0x49
 459 00b0 13       		.uleb128 0x13
 460 00b1 02       		.uleb128 0x2
 461 00b2 17       		.uleb128 0x17
 462 00b3 00       		.byte	0
 463 00b4 00       		.byte	0
 464 00b5 0E       		.uleb128 0xe
 465 00b6 2E       		.uleb128 0x2e
 466 00b7 01       		.byte	0x1
 467 00b8 3F       		.uleb128 0x3f
 468 00b9 19       		.uleb128 0x19
 469 00ba 03       		.uleb128 0x3
 470 00bb 0E       		.uleb128 0xe
 471 00bc 3A       		.uleb128 0x3a
 472 00bd 0B       		.uleb128 0xb
 473 00be 3B       		.uleb128 0x3b
 474 00bf 0B       		.uleb128 0xb
 475 00c0 49       		.uleb128 0x49
 476 00c1 13       		.uleb128 0x13
 477 00c2 3C       		.uleb128 0x3c
 478 00c3 19       		.uleb128 0x19
 479 00c4 01       		.uleb128 0x1
 480 00c5 13       		.uleb128 0x13
 481 00c6 00       		.byte	0
ARM GAS  /tmp/ccftaGFW.s 			page 10


 482 00c7 00       		.byte	0
 483 00c8 0F       		.uleb128 0xf
 484 00c9 18       		.uleb128 0x18
 485 00ca 00       		.byte	0
 486 00cb 00       		.byte	0
 487 00cc 00       		.byte	0
 488 00cd 10       		.uleb128 0x10
 489 00ce 898201   		.uleb128 0x4109
 490 00d1 00       		.byte	0
 491 00d2 11       		.uleb128 0x11
 492 00d3 01       		.uleb128 0x1
 493 00d4 31       		.uleb128 0x31
 494 00d5 13       		.uleb128 0x13
 495 00d6 00       		.byte	0
 496 00d7 00       		.byte	0
 497 00d8 11       		.uleb128 0x11
 498 00d9 2E       		.uleb128 0x2e
 499 00da 01       		.byte	0x1
 500 00db 3F       		.uleb128 0x3f
 501 00dc 19       		.uleb128 0x19
 502 00dd 03       		.uleb128 0x3
 503 00de 0E       		.uleb128 0xe
 504 00df 3A       		.uleb128 0x3a
 505 00e0 0B       		.uleb128 0xb
 506 00e1 3B       		.uleb128 0x3b
 507 00e2 0B       		.uleb128 0xb
 508 00e3 27       		.uleb128 0x27
 509 00e4 19       		.uleb128 0x19
 510 00e5 3C       		.uleb128 0x3c
 511 00e6 19       		.uleb128 0x19
 512 00e7 00       		.byte	0
 513 00e8 00       		.byte	0
 514 00e9 12       		.uleb128 0x12
 515 00ea 05       		.uleb128 0x5
 516 00eb 00       		.byte	0
 517 00ec 49       		.uleb128 0x49
 518 00ed 13       		.uleb128 0x13
 519 00ee 00       		.byte	0
 520 00ef 00       		.byte	0
 521 00f0 00       		.byte	0
 522              		.section	.debug_loc,"",%progbits
 523              	.Ldebug_loc0:
 524              	.LLST0:
 525 0000 06000000 		.4byte	.LVL0
 526 0004 0B000000 		.4byte	.LVL1-1
 527 0008 0100     		.2byte	0x1
 528 000a 50       		.byte	0x50
 529 000b 00000000 		.4byte	0
 530 000f 00000000 		.4byte	0
 531              		.section	.debug_aranges,"",%progbits
 532 0000 24000000 		.4byte	0x24
 533 0004 0200     		.2byte	0x2
 534 0006 00000000 		.4byte	.Ldebug_info0
 535 000a 04       		.byte	0x4
 536 000b 00       		.byte	0
 537 000c 0000     		.2byte	0
 538 000e 0000     		.2byte	0
ARM GAS  /tmp/ccftaGFW.s 			page 11


 539 0010 00000000 		.4byte	.Ltext0
 540 0014 20000000 		.4byte	.Letext0-.Ltext0
 541 0018 00000000 		.4byte	.LFB34
 542 001c 20000000 		.4byte	.LFE34-.LFB34
 543 0020 00000000 		.4byte	0
 544 0024 00000000 		.4byte	0
 545              		.section	.debug_ranges,"",%progbits
 546              	.Ldebug_ranges0:
 547 0000 00000000 		.4byte	.Ltext0
 548 0004 20000000 		.4byte	.Letext0
 549 0008 00000000 		.4byte	.LFB34
 550 000c 20000000 		.4byte	.LFE34
 551 0010 00000000 		.4byte	0
 552 0014 00000000 		.4byte	0
 553              		.section	.debug_line,"",%progbits
 554              	.Ldebug_line0:
 555 0000 B6000000 		.section	.debug_str,"MS",%progbits,1
 555      02007800 
 555      00000201 
 555      FB0E0D00 
 555      01010101 
 556              	.LASF3:
 557 0000 6C6F6E67 		.ascii	"long long int\000"
 557      206C6F6E 
 557      6720696E 
 557      7400
 558              	.LASF18:
 559 000e 50494452 		.ascii	"PIDR\000"
 559      00
 560              	.LASF10:
 561 0013 756E7369 		.ascii	"unsigned int\000"
 561      676E6564 
 561      20696E74 
 561      00
 562              	.LASF14:
 563 0020 50434F52 		.ascii	"PCOR\000"
 563      00
 564              	.LASF15:
 565 0025 50544F52 		.ascii	"PTOR\000"
 565      00
 566              	.LASF24:
 567 002a 73657475 		.ascii	"setup\000"
 567      7000
 568              	.LASF20:
 569 0030 6765745F 		.ascii	"get_ADC\000"
 569      41444300 
 570              	.LASF8:
 571 0038 6C6F6E67 		.ascii	"long unsigned int\000"
 571      20756E73 
 571      69676E65 
 571      6420696E 
 571      7400
 572              	.LASF9:
 573 004a 6C6F6E67 		.ascii	"long long unsigned int\000"
 573      206C6F6E 
 573      6720756E 
 573      7369676E 
ARM GAS  /tmp/ccftaGFW.s 			page 12


 573      65642069 
 574              	.LASF22:
 575 0061 7372632F 		.ascii	"src/main.c\000"
 575      6D61696E 
 575      2E6300
 576              	.LASF21:
 577 006c 474E5520 		.ascii	"GNU C 4.9.3 20150529 (prerelease) -mthumb -mcpu=cor"
 577      4320342E 
 577      392E3320 
 577      32303135 
 577      30353239 
 578 009f 7465782D 		.ascii	"tex-m0plus -g -Os -fno-common -ffreestanding -fno-b"
 578      6D30706C 
 578      7573202D 
 578      67202D4F 
 578      73202D66 
 579 00d2 75696C74 		.ascii	"uiltin\000"
 579      696E00
 580              	.LASF6:
 581 00d9 75696E74 		.ascii	"uint8_t\000"
 581      385F7400 
 582              	.LASF4:
 583 00e1 756E7369 		.ascii	"unsigned char\000"
 583      676E6564 
 583      20636861 
 583      7200
 584              	.LASF25:
 585 00ef 6D61696E 		.ascii	"main\000"
 585      00
 586              	.LASF13:
 587 00f4 50534F52 		.ascii	"PSOR\000"
 587      00
 588              	.LASF2:
 589 00f9 6C6F6E67 		.ascii	"long int\000"
 589      20696E74 
 589      00
 590              	.LASF1:
 591 0102 73686F72 		.ascii	"short int\000"
 591      7420696E 
 591      7400
 592              	.LASF17:
 593 010c 50444452 		.ascii	"PDDR\000"
 593      00
 594              	.LASF7:
 595 0111 75696E74 		.ascii	"uint32_t\000"
 595      33325F74 
 595      00
 596              	.LASF12:
 597 011a 50444F52 		.ascii	"PDOR\000"
 597      00
 598              	.LASF5:
 599 011f 73686F72 		.ascii	"short unsigned int\000"
 599      7420756E 
 599      7369676E 
 599      65642069 
 599      6E7400
 600              	.LASF0:
ARM GAS  /tmp/ccftaGFW.s 			page 13


 601 0132 7369676E 		.ascii	"signed char\000"
 601      65642063 
 601      68617200 
 602              	.LASF19:
 603 013e 4750494F 		.ascii	"GPIO_Type\000"
 603      5F547970 
 603      6500
 604              	.LASF27:
 605 0148 64656C61 		.ascii	"delayms\000"
 605      796D7300 
 606              	.LASF16:
 607 0150 50444952 		.ascii	"PDIR\000"
 607      00
 608              	.LASF26:
 609 0155 6164635F 		.ascii	"adc_val\000"
 609      76616C00 
 610              	.LASF11:
 611 015d 73697A65 		.ascii	"sizetype\000"
 611      74797065 
 611      00
 612              	.LASF23:
 613 0166 2F686F6D 		.ascii	"/home/xxx/projects/armmke_dev1/firmware\000"
 613      652F7878 
 613      782F7072 
 613      6F6A6563 
 613      74732F61 
 614              		.ident	"GCC: (15:4.9.3+svn231177-1) 4.9.3 20150529 (prerelease)"
ARM GAS  /tmp/ccftaGFW.s 			page 14


DEFINED SYMBOLS
                            *ABS*:0000000000000000 main.c
     /tmp/ccftaGFW.s:17     .text:0000000000000000 $t
     /tmp/ccftaGFW.s:22     .text:0000000000000000 setup
     /tmp/ccftaGFW.s:50     .text:000000000000001c $d
     /tmp/ccftaGFW.s:55     .text.startup:0000000000000000 $t
     /tmp/ccftaGFW.s:60     .text.startup:0000000000000000 main
     /tmp/ccftaGFW.s:90     .text.startup:000000000000001c $d
                     .debug_frame:0000000000000010 $d

UNDEFINED SYMBOLS
get_ADC
delayms
