ARM GAS  /tmp/ccNdwYfL.s 			page 1


   1              		.cpu cortex-m0plus
   2              		.fpu softvfp
   3              		.eabi_attribute 20, 1
   4              		.eabi_attribute 21, 1
   5              		.eabi_attribute 23, 3
   6              		.eabi_attribute 24, 1
   7              		.eabi_attribute 25, 1
   8              		.eabi_attribute 26, 1
   9              		.eabi_attribute 30, 4
  10              		.eabi_attribute 34, 0
  11              		.eabi_attribute 18, 4
  12              		.code	16
  13              		.file	"pit.c"
  14              		.text
  15              	.Ltext0:
  16              		.cfi_sections	.debug_frame
  17              		.align	1
  18              		.global	setup_PIT
  19              		.code	16
  20              		.thumb_func
  21              		.type	setup_PIT, %function
  22              	setup_PIT:
  23              	.LFB33:
  24              		.file 1 "src/pit.c"
   1:src/pit.c     **** #include "MKE04Z4.h"
   2:src/pit.c     **** #include "pit.h"
   3:src/pit.c     **** #include <stdint.h>
   4:src/pit.c     **** 
   5:src/pit.c     **** /**
   6:src/pit.c     ****  * Sets up the PIT module to fire an interrupt twice a millisecond.
   7:src/pit.c     ****  * As per startup.c, our clock is 48Mhz.
   8:src/pit.c     ****  * As such, our interval is 24Mhz / 1000 / 2
   9:src/pit.c     ****  * LDVAL = 48000000: 1hz
  10:src/pit.c     ****  * LDVAL = 48000: 1000hz
  11:src/pit.c     ****  * LDVAL = 24000: 2000hz
  12:src/pit.c     ****  */
  13:src/pit.c     **** void  setup_PIT(void)
  14:src/pit.c     **** {
  25              		.loc 1 14 0
  26              		.cfi_startproc
  15:src/pit.c     ****     SIM->SCGC |= SIM_SCGC_PIT_MASK;                   //Turn on the clock for the PIT
  27              		.loc 1 15 0
  28 0000 0222     		mov	r2, #2
  29 0002 0A49     		ldr	r1, .L2
  16:src/pit.c     ****     PIT->MCR = 0;                                     //Enable the PIT.
  17:src/pit.c     ****     PIT->CHANNEL[0].LDVAL = 24000;                    //Load the timeout value.
  18:src/pit.c     ****     PIT->CHANNEL[0].TCTRL = PIT_TCTRL_TIE_MASK;       //Enable timer interrupts
  19:src/pit.c     ****     PIT->CHANNEL[0].TFLG = 0x1;                       //Clear the 'has interrupted' flag
  20:src/pit.c     ****     PIT->CHANNEL[0].TCTRL |= PIT_TCTRL_TEN_MASK;      //Enable the timer.
  21:src/pit.c     ****     NVIC->ISER[0] = 1 << 22;                          //Enable IRQ channel 2 - PIT CH0.
  22:src/pit.c     **** }
  30              		.loc 1 22 0
  31              		@ sp needed
  15:src/pit.c     ****     SIM->SCGC |= SIM_SCGC_PIT_MASK;                   //Turn on the clock for the PIT
  32              		.loc 1 15 0
  33 0004 CB68     		ldr	r3, [r1, #12]
  34 0006 1343     		orr	r3, r2
ARM GAS  /tmp/ccNdwYfL.s 			page 2


  35 0008 CB60     		str	r3, [r1, #12]
  16:src/pit.c     ****     PIT->MCR = 0;                                     //Enable the PIT.
  36              		.loc 1 16 0
  37 000a 0021     		mov	r1, #0
  38 000c 084B     		ldr	r3, .L2+4
  39 000e 1960     		str	r1, [r3]
  17:src/pit.c     ****     PIT->CHANNEL[0].TCTRL = PIT_TCTRL_TIE_MASK;       //Enable timer interrupts
  40              		.loc 1 17 0
  41 0010 0849     		ldr	r1, .L2+8
  42 0012 FC33     		add	r3, r3, #252
  43 0014 5960     		str	r1, [r3, #4]
  19:src/pit.c     ****     PIT->CHANNEL[0].TCTRL |= PIT_TCTRL_TEN_MASK;      //Enable the timer.
  44              		.loc 1 19 0
  45 0016 0121     		mov	r1, #1
  18:src/pit.c     ****     PIT->CHANNEL[0].TFLG = 0x1;                       //Clear the 'has interrupted' flag
  46              		.loc 1 18 0
  47 0018 DA60     		str	r2, [r3, #12]
  19:src/pit.c     ****     PIT->CHANNEL[0].TCTRL |= PIT_TCTRL_TEN_MASK;      //Enable the timer.
  48              		.loc 1 19 0
  49 001a 1961     		str	r1, [r3, #16]
  20:src/pit.c     ****     NVIC->ISER[0] = 1 << 22;                          //Enable IRQ channel 2 - PIT CH0.
  50              		.loc 1 20 0
  51 001c DA68     		ldr	r2, [r3, #12]
  52 001e 0A43     		orr	r2, r1
  53 0020 DA60     		str	r2, [r3, #12]
  21:src/pit.c     **** }
  54              		.loc 1 21 0
  55 0022 8022     		mov	r2, #128
  56 0024 044B     		ldr	r3, .L2+12
  57 0026 D203     		lsl	r2, r2, #15
  58 0028 1A60     		str	r2, [r3]
  59              		.loc 1 22 0
  60 002a 7047     		bx	lr
  61              	.L3:
  62              		.align	2
  63              	.L2:
  64 002c 00800440 		.word	1074036736
  65 0030 00700340 		.word	1073967104
  66 0034 C05D0000 		.word	24000
  67 0038 00E100E0 		.word	-536813312
  68              		.cfi_endproc
  69              	.LFE33:
  70              		.size	setup_PIT, .-setup_PIT
  71              		.align	1
  72              		.global	PIT_CH0_IRQHandler
  73              		.code	16
  74              		.thumb_func
  75              		.type	PIT_CH0_IRQHandler, %function
  76              	PIT_CH0_IRQHandler:
  77              	.LFB34:
  23:src/pit.c     **** 
  24:src/pit.c     **** uint32_t volatile counter;
  25:src/pit.c     **** 
  26:src/pit.c     **** // Called when PIT Channel 0 fires.
  27:src/pit.c     **** void PIT_CH0_IRQHandler(void)
  28:src/pit.c     **** {
  78              		.loc 1 28 0
ARM GAS  /tmp/ccNdwYfL.s 			page 3


  79              		.cfi_startproc
  29:src/pit.c     ****     PIT->CHANNEL[0].TFLG = 0x1;
  80              		.loc 1 29 0
  81 003c 0122     		mov	r2, #1
  82 003e 034B     		ldr	r3, .L5
  30:src/pit.c     ****     counter++;
  31:src/pit.c     **** }
  83              		.loc 1 31 0
  84              		@ sp needed
  29:src/pit.c     ****     PIT->CHANNEL[0].TFLG = 0x1;
  85              		.loc 1 29 0
  86 0040 1A61     		str	r2, [r3, #16]
  30:src/pit.c     ****     counter++;
  87              		.loc 1 30 0
  88 0042 034A     		ldr	r2, .L5+4
  89 0044 1368     		ldr	r3, [r2]
  90 0046 0133     		add	r3, r3, #1
  91 0048 1360     		str	r3, [r2]
  92              		.loc 1 31 0
  93 004a 7047     		bx	lr
  94              	.L6:
  95              		.align	2
  96              	.L5:
  97 004c FC700340 		.word	1073967356
  98 0050 00000000 		.word	.LANCHOR0
  99              		.cfi_endproc
 100              	.LFE34:
 101              		.size	PIT_CH0_IRQHandler, .-PIT_CH0_IRQHandler
 102              		.align	1
 103              		.global	getTicks
 104              		.code	16
 105              		.thumb_func
 106              		.type	getTicks, %function
 107              	getTicks:
 108              	.LFB35:
  32:src/pit.c     **** 
  33:src/pit.c     **** uint32_t getTicks()
  34:src/pit.c     **** {
 109              		.loc 1 34 0
 110              		.cfi_startproc
  35:src/pit.c     ****   return counter;
 111              		.loc 1 35 0
 112 0054 014B     		ldr	r3, .L8
  36:src/pit.c     **** }
 113              		.loc 1 36 0
 114              		@ sp needed
  35:src/pit.c     ****   return counter;
 115              		.loc 1 35 0
 116 0056 1868     		ldr	r0, [r3]
 117              		.loc 1 36 0
 118 0058 7047     		bx	lr
 119              	.L9:
 120 005a C046     		.align	2
 121              	.L8:
 122 005c 00000000 		.word	.LANCHOR0
 123              		.cfi_endproc
 124              	.LFE35:
ARM GAS  /tmp/ccNdwYfL.s 			page 4


 125              		.size	getTicks, .-getTicks
 126              		.global	counter
 127              		.bss
 128              		.align	2
 129              		.set	.LANCHOR0,. + 0
 130              		.type	counter, %object
 131              		.size	counter, 4
 132              	counter:
 133 0000 00000000 		.space	4
 134              		.text
 135              	.Letext0:
 136              		.file 2 "/usr/lib/gcc/arm-none-eabi/4.9.3/include/stdint-gcc.h"
 137              		.file 3 "include/core_cm0plus.h"
 138              		.file 4 "include/MKE04Z4.h"
 139              		.section	.debug_info,"",%progbits
 140              	.Ldebug_info0:
 141 0000 E9020000 		.4byte	0x2e9
 142 0004 0400     		.2byte	0x4
 143 0006 00000000 		.4byte	.Ldebug_abbrev0
 144 000a 04       		.byte	0x4
 145 000b 01       		.uleb128 0x1
 146 000c 45010000 		.4byte	.LASF41
 147 0010 01       		.byte	0x1
 148 0011 53000000 		.4byte	.LASF42
 149 0015 97000000 		.4byte	.LASF43
 150 0019 00000000 		.4byte	.Ltext0
 151 001d 60000000 		.4byte	.Letext0-.Ltext0
 152 0021 00000000 		.4byte	.Ldebug_line0
 153 0025 02       		.uleb128 0x2
 154 0026 01       		.byte	0x1
 155 0027 06       		.byte	0x6
 156 0028 FE010000 		.4byte	.LASF0
 157 002c 02       		.uleb128 0x2
 158 002d 02       		.byte	0x2
 159 002e 05       		.byte	0x5
 160 002f E2010000 		.4byte	.LASF1
 161 0033 02       		.uleb128 0x2
 162 0034 04       		.byte	0x4
 163 0035 05       		.byte	0x5
 164 0036 F5010000 		.4byte	.LASF2
 165 003a 02       		.uleb128 0x2
 166 003b 08       		.byte	0x8
 167 003c 05       		.byte	0x5
 168 003d C9010000 		.4byte	.LASF3
 169 0041 03       		.uleb128 0x3
 170 0042 3D010000 		.4byte	.LASF6
 171 0046 02       		.byte	0x2
 172 0047 2E       		.byte	0x2e
 173 0048 4C000000 		.4byte	0x4c
 174 004c 02       		.uleb128 0x2
 175 004d 01       		.byte	0x1
 176 004e 08       		.byte	0x8
 177 004f C5000000 		.4byte	.LASF4
 178 0053 02       		.uleb128 0x2
 179 0054 02       		.byte	0x2
 180 0055 07       		.byte	0x7
 181 0056 84000000 		.4byte	.LASF5
ARM GAS  /tmp/ccNdwYfL.s 			page 5


 182 005a 03       		.uleb128 0x3
 183 005b EC010000 		.4byte	.LASF7
 184 005f 02       		.byte	0x2
 185 0060 34       		.byte	0x34
 186 0061 65000000 		.4byte	0x65
 187 0065 02       		.uleb128 0x2
 188 0066 04       		.byte	0x4
 189 0067 07       		.byte	0x7
 190 0068 6C000000 		.4byte	.LASF8
 191 006c 02       		.uleb128 0x2
 192 006d 08       		.byte	0x8
 193 006e 07       		.byte	0x7
 194 006f 26010000 		.4byte	.LASF9
 195 0073 04       		.uleb128 0x4
 196 0074 04       		.byte	0x4
 197 0075 05       		.byte	0x5
 198 0076 696E7400 		.ascii	"int\000"
 199 007a 02       		.uleb128 0x2
 200 007b 04       		.byte	0x4
 201 007c 07       		.byte	0x7
 202 007d 0D010000 		.4byte	.LASF10
 203 0081 05       		.uleb128 0x5
 204 0082 2003     		.2byte	0x320
 205 0084 03       		.byte	0x3
 206 0085 2301     		.2byte	0x123
 207 0087 13010000 		.4byte	0x113
 208 008b 06       		.uleb128 0x6
 209 008c DD010000 		.4byte	.LASF11
 210 0090 03       		.byte	0x3
 211 0091 2501     		.2byte	0x125
 212 0093 2A010000 		.4byte	0x12a
 213 0097 00       		.byte	0
 214 0098 06       		.uleb128 0x6
 215 0099 0E000000 		.4byte	.LASF12
 216 009d 03       		.byte	0x3
 217 009e 2601     		.2byte	0x126
 218 00a0 2F010000 		.4byte	0x12f
 219 00a4 04       		.byte	0x4
 220 00a5 06       		.uleb128 0x6
 221 00a6 27000000 		.4byte	.LASF13
 222 00aa 03       		.byte	0x3
 223 00ab 2701     		.2byte	0x127
 224 00ad 3F010000 		.4byte	0x13f
 225 00b1 80       		.byte	0x80
 226 00b2 06       		.uleb128 0x6
 227 00b3 B7010000 		.4byte	.LASF14
 228 00b7 03       		.byte	0x3
 229 00b8 2801     		.2byte	0x128
 230 00ba 2F010000 		.4byte	0x12f
 231 00be 84       		.byte	0x84
 232 00bf 07       		.uleb128 0x7
 233 00c0 1A010000 		.4byte	.LASF15
 234 00c4 03       		.byte	0x3
 235 00c5 2901     		.2byte	0x129
 236 00c7 44010000 		.4byte	0x144
 237 00cb 0001     		.2byte	0x100
 238 00cd 07       		.uleb128 0x7
ARM GAS  /tmp/ccNdwYfL.s 			page 6


 239 00ce 1D000000 		.4byte	.LASF16
 240 00d2 03       		.byte	0x3
 241 00d3 2A01     		.2byte	0x12a
 242 00d5 2F010000 		.4byte	0x12f
 243 00d9 0401     		.2byte	0x104
 244 00db 07       		.uleb128 0x7
 245 00dc 00000000 		.4byte	.LASF17
 246 00e0 03       		.byte	0x3
 247 00e1 2B01     		.2byte	0x12b
 248 00e3 49010000 		.4byte	0x149
 249 00e7 8001     		.2byte	0x180
 250 00e9 07       		.uleb128 0x7
 251 00ea 1C020000 		.4byte	.LASF18
 252 00ee 03       		.byte	0x3
 253 00ef 2C01     		.2byte	0x12c
 254 00f1 2F010000 		.4byte	0x12f
 255 00f5 8401     		.2byte	0x184
 256 00f7 07       		.uleb128 0x7
 257 00f8 2C000000 		.4byte	.LASF19
 258 00fc 03       		.byte	0x3
 259 00fd 2D01     		.2byte	0x12d
 260 00ff 4E010000 		.4byte	0x14e
 261 0103 0002     		.2byte	0x200
 262 0105 08       		.uleb128 0x8
 263 0106 495000   		.ascii	"IP\000"
 264 0109 03       		.byte	0x3
 265 010a 2E01     		.2byte	0x12e
 266 010c 6E010000 		.4byte	0x16e
 267 0110 0003     		.2byte	0x300
 268 0112 00       		.byte	0
 269 0113 09       		.uleb128 0x9
 270 0114 5A000000 		.4byte	0x5a
 271 0118 23010000 		.4byte	0x123
 272 011c 0A       		.uleb128 0xa
 273 011d 23010000 		.4byte	0x123
 274 0121 00       		.byte	0
 275 0122 00       		.byte	0
 276 0123 02       		.uleb128 0x2
 277 0124 04       		.byte	0x4
 278 0125 07       		.byte	0x7
 279 0126 C0010000 		.4byte	.LASF20
 280 012a 0B       		.uleb128 0xb
 281 012b 13010000 		.4byte	0x113
 282 012f 09       		.uleb128 0x9
 283 0130 5A000000 		.4byte	0x5a
 284 0134 3F010000 		.4byte	0x13f
 285 0138 0A       		.uleb128 0xa
 286 0139 23010000 		.4byte	0x123
 287 013d 1E       		.byte	0x1e
 288 013e 00       		.byte	0
 289 013f 0B       		.uleb128 0xb
 290 0140 13010000 		.4byte	0x113
 291 0144 0B       		.uleb128 0xb
 292 0145 13010000 		.4byte	0x113
 293 0149 0B       		.uleb128 0xb
 294 014a 13010000 		.4byte	0x113
 295 014e 09       		.uleb128 0x9
ARM GAS  /tmp/ccNdwYfL.s 			page 7


 296 014f 5A000000 		.4byte	0x5a
 297 0153 5E010000 		.4byte	0x15e
 298 0157 0A       		.uleb128 0xa
 299 0158 23010000 		.4byte	0x123
 300 015c 3F       		.byte	0x3f
 301 015d 00       		.byte	0
 302 015e 09       		.uleb128 0x9
 303 015f 5A000000 		.4byte	0x5a
 304 0163 6E010000 		.4byte	0x16e
 305 0167 0A       		.uleb128 0xa
 306 0168 23010000 		.4byte	0x123
 307 016c 07       		.byte	0x7
 308 016d 00       		.byte	0
 309 016e 0B       		.uleb128 0xb
 310 016f 5E010000 		.4byte	0x15e
 311 0173 0C       		.uleb128 0xc
 312 0174 62000000 		.4byte	.LASF21
 313 0178 03       		.byte	0x3
 314 0179 2F01     		.2byte	0x12f
 315 017b 81000000 		.4byte	0x81
 316 017f 0D       		.uleb128 0xd
 317 0180 84010000 		.4byte	0x184
 318 0184 0B       		.uleb128 0xb
 319 0185 5A000000 		.4byte	0x5a
 320 0189 0E       		.uleb128 0xe
 321 018a 10       		.byte	0x10
 322 018b 04       		.byte	0x4
 323 018c 2E07     		.2byte	0x72e
 324 018e C7010000 		.4byte	0x1c7
 325 0192 06       		.uleb128 0x6
 326 0193 07010000 		.4byte	.LASF22
 327 0197 04       		.byte	0x4
 328 0198 2F07     		.2byte	0x72f
 329 019a 84010000 		.4byte	0x184
 330 019e 00       		.byte	0
 331 019f 06       		.uleb128 0x6
 332 01a0 5D000000 		.4byte	.LASF23
 333 01a4 04       		.byte	0x4
 334 01a5 3007     		.2byte	0x730
 335 01a7 7F010000 		.4byte	0x17f
 336 01ab 04       		.byte	0x4
 337 01ac 06       		.uleb128 0x6
 338 01ad D7010000 		.4byte	.LASF24
 339 01b1 04       		.byte	0x4
 340 01b2 3107     		.2byte	0x731
 341 01b4 84010000 		.4byte	0x184
 342 01b8 08       		.byte	0x8
 343 01b9 06       		.uleb128 0x6
 344 01ba 18000000 		.4byte	.LASF25
 345 01be 04       		.byte	0x4
 346 01bf 3207     		.2byte	0x732
 347 01c1 84010000 		.4byte	0x184
 348 01c5 0C       		.byte	0xc
 349 01c6 00       		.byte	0
 350 01c7 05       		.uleb128 0x5
 351 01c8 2001     		.2byte	0x120
 352 01ca 04       		.byte	0x4
ARM GAS  /tmp/ccNdwYfL.s 			page 8


 353 01cb 2B07     		.2byte	0x72b
 354 01cd FA010000 		.4byte	0x1fa
 355 01d1 0F       		.uleb128 0xf
 356 01d2 4D435200 		.ascii	"MCR\000"
 357 01d6 04       		.byte	0x4
 358 01d7 2C07     		.2byte	0x72c
 359 01d9 84010000 		.4byte	0x184
 360 01dd 00       		.byte	0
 361 01de 06       		.uleb128 0x6
 362 01df 0A020000 		.4byte	.LASF26
 363 01e3 04       		.byte	0x4
 364 01e4 2D07     		.2byte	0x72d
 365 01e6 FA010000 		.4byte	0x1fa
 366 01ea 04       		.byte	0x4
 367 01eb 07       		.uleb128 0x7
 368 01ec FF000000 		.4byte	.LASF27
 369 01f0 04       		.byte	0x4
 370 01f1 3307     		.2byte	0x733
 371 01f3 0A020000 		.4byte	0x20a
 372 01f7 0001     		.2byte	0x100
 373 01f9 00       		.byte	0
 374 01fa 09       		.uleb128 0x9
 375 01fb 41000000 		.4byte	0x41
 376 01ff 0A020000 		.4byte	0x20a
 377 0203 0A       		.uleb128 0xa
 378 0204 23010000 		.4byte	0x123
 379 0208 FB       		.byte	0xfb
 380 0209 00       		.byte	0
 381 020a 09       		.uleb128 0x9
 382 020b 89010000 		.4byte	0x189
 383 020f 1A020000 		.4byte	0x21a
 384 0213 0A       		.uleb128 0xa
 385 0214 23010000 		.4byte	0x123
 386 0218 01       		.byte	0x1
 387 0219 00       		.byte	0
 388 021a 0C       		.uleb128 0xc
 389 021b 3D000000 		.4byte	.LASF28
 390 021f 04       		.byte	0x4
 391 0220 3407     		.2byte	0x734
 392 0222 C7010000 		.4byte	0x1c7
 393 0226 0E       		.uleb128 0xe
 394 0227 20       		.byte	0x20
 395 0228 04       		.byte	0x4
 396 0229 CE08     		.2byte	0x8ce
 397 022b 98020000 		.4byte	0x298
 398 022f 06       		.uleb128 0x6
 399 0230 7E000000 		.4byte	.LASF29
 400 0234 04       		.byte	0x4
 401 0235 CF08     		.2byte	0x8cf
 402 0237 7F010000 		.4byte	0x17f
 403 023b 00       		.byte	0
 404 023c 06       		.uleb128 0x6
 405 023d B2010000 		.4byte	.LASF30
 406 0241 04       		.byte	0x4
 407 0242 D008     		.2byte	0x8d0
 408 0244 84010000 		.4byte	0x184
 409 0248 04       		.byte	0x4
ARM GAS  /tmp/ccNdwYfL.s 			page 9


 410 0249 06       		.uleb128 0x6
 411 024a 1F010000 		.4byte	.LASF31
 412 024e 04       		.byte	0x4
 413 024f D108     		.2byte	0x8d1
 414 0251 84010000 		.4byte	0x184
 415 0255 08       		.byte	0x8
 416 0256 06       		.uleb128 0x6
 417 0257 4E000000 		.4byte	.LASF32
 418 025b 04       		.byte	0x4
 419 025c D208     		.2byte	0x8d2
 420 025e 84010000 		.4byte	0x184
 421 0262 0C       		.byte	0xc
 422 0263 06       		.uleb128 0x6
 423 0264 D3000000 		.4byte	.LASF33
 424 0268 04       		.byte	0x4
 425 0269 D308     		.2byte	0x8d3
 426 026b 7F010000 		.4byte	0x17f
 427 026f 10       		.byte	0x10
 428 0270 06       		.uleb128 0x6
 429 0271 BF000000 		.4byte	.LASF34
 430 0275 04       		.byte	0x4
 431 0276 D408     		.2byte	0x8d4
 432 0278 7F010000 		.4byte	0x17f
 433 027c 14       		.byte	0x14
 434 027d 06       		.uleb128 0x6
 435 027e 15020000 		.4byte	.LASF35
 436 0282 04       		.byte	0x4
 437 0283 D508     		.2byte	0x8d5
 438 0285 7F010000 		.4byte	0x17f
 439 0289 18       		.byte	0x18
 440 028a 06       		.uleb128 0x6
 441 028b 36000000 		.4byte	.LASF36
 442 028f 04       		.byte	0x4
 443 0290 D608     		.2byte	0x8d6
 444 0292 84010000 		.4byte	0x184
 445 0296 1C       		.byte	0x1c
 446 0297 00       		.byte	0
 447 0298 0C       		.uleb128 0xc
 448 0299 E3000000 		.4byte	.LASF37
 449 029d 04       		.byte	0x4
 450 029e D708     		.2byte	0x8d7
 451 02a0 26020000 		.4byte	0x226
 452 02a4 10       		.uleb128 0x10
 453 02a5 D9000000 		.4byte	.LASF38
 454 02a9 01       		.byte	0x1
 455 02aa 0D       		.byte	0xd
 456 02ab 00000000 		.4byte	.LFB33
 457 02af 3C000000 		.4byte	.LFE33-.LFB33
 458 02b3 01       		.uleb128 0x1
 459 02b4 9C       		.byte	0x9c
 460 02b5 10       		.uleb128 0x10
 461 02b6 EC000000 		.4byte	.LASF39
 462 02ba 01       		.byte	0x1
 463 02bb 1B       		.byte	0x1b
 464 02bc 3C000000 		.4byte	.LFB34
 465 02c0 18000000 		.4byte	.LFE34-.LFB34
 466 02c4 01       		.uleb128 0x1
ARM GAS  /tmp/ccNdwYfL.s 			page 10


 467 02c5 9C       		.byte	0x9c
 468 02c6 11       		.uleb128 0x11
 469 02c7 05000000 		.4byte	.LASF40
 470 02cb 01       		.byte	0x1
 471 02cc 21       		.byte	0x21
 472 02cd 5A000000 		.4byte	0x5a
 473 02d1 54000000 		.4byte	.LFB35
 474 02d5 0C000000 		.4byte	.LFE35-.LFB35
 475 02d9 01       		.uleb128 0x1
 476 02da 9C       		.byte	0x9c
 477 02db 12       		.uleb128 0x12
 478 02dc 46000000 		.4byte	.LASF44
 479 02e0 01       		.byte	0x1
 480 02e1 18       		.byte	0x18
 481 02e2 84010000 		.4byte	0x184
 482 02e6 05       		.uleb128 0x5
 483 02e7 03       		.byte	0x3
 484 02e8 00000000 		.4byte	counter
 485 02ec 00       		.byte	0
 486              		.section	.debug_abbrev,"",%progbits
 487              	.Ldebug_abbrev0:
 488 0000 01       		.uleb128 0x1
 489 0001 11       		.uleb128 0x11
 490 0002 01       		.byte	0x1
 491 0003 25       		.uleb128 0x25
 492 0004 0E       		.uleb128 0xe
 493 0005 13       		.uleb128 0x13
 494 0006 0B       		.uleb128 0xb
 495 0007 03       		.uleb128 0x3
 496 0008 0E       		.uleb128 0xe
 497 0009 1B       		.uleb128 0x1b
 498 000a 0E       		.uleb128 0xe
 499 000b 11       		.uleb128 0x11
 500 000c 01       		.uleb128 0x1
 501 000d 12       		.uleb128 0x12
 502 000e 06       		.uleb128 0x6
 503 000f 10       		.uleb128 0x10
 504 0010 17       		.uleb128 0x17
 505 0011 00       		.byte	0
 506 0012 00       		.byte	0
 507 0013 02       		.uleb128 0x2
 508 0014 24       		.uleb128 0x24
 509 0015 00       		.byte	0
 510 0016 0B       		.uleb128 0xb
 511 0017 0B       		.uleb128 0xb
 512 0018 3E       		.uleb128 0x3e
 513 0019 0B       		.uleb128 0xb
 514 001a 03       		.uleb128 0x3
 515 001b 0E       		.uleb128 0xe
 516 001c 00       		.byte	0
 517 001d 00       		.byte	0
 518 001e 03       		.uleb128 0x3
 519 001f 16       		.uleb128 0x16
 520 0020 00       		.byte	0
 521 0021 03       		.uleb128 0x3
 522 0022 0E       		.uleb128 0xe
 523 0023 3A       		.uleb128 0x3a
ARM GAS  /tmp/ccNdwYfL.s 			page 11


 524 0024 0B       		.uleb128 0xb
 525 0025 3B       		.uleb128 0x3b
 526 0026 0B       		.uleb128 0xb
 527 0027 49       		.uleb128 0x49
 528 0028 13       		.uleb128 0x13
 529 0029 00       		.byte	0
 530 002a 00       		.byte	0
 531 002b 04       		.uleb128 0x4
 532 002c 24       		.uleb128 0x24
 533 002d 00       		.byte	0
 534 002e 0B       		.uleb128 0xb
 535 002f 0B       		.uleb128 0xb
 536 0030 3E       		.uleb128 0x3e
 537 0031 0B       		.uleb128 0xb
 538 0032 03       		.uleb128 0x3
 539 0033 08       		.uleb128 0x8
 540 0034 00       		.byte	0
 541 0035 00       		.byte	0
 542 0036 05       		.uleb128 0x5
 543 0037 13       		.uleb128 0x13
 544 0038 01       		.byte	0x1
 545 0039 0B       		.uleb128 0xb
 546 003a 05       		.uleb128 0x5
 547 003b 3A       		.uleb128 0x3a
 548 003c 0B       		.uleb128 0xb
 549 003d 3B       		.uleb128 0x3b
 550 003e 05       		.uleb128 0x5
 551 003f 01       		.uleb128 0x1
 552 0040 13       		.uleb128 0x13
 553 0041 00       		.byte	0
 554 0042 00       		.byte	0
 555 0043 06       		.uleb128 0x6
 556 0044 0D       		.uleb128 0xd
 557 0045 00       		.byte	0
 558 0046 03       		.uleb128 0x3
 559 0047 0E       		.uleb128 0xe
 560 0048 3A       		.uleb128 0x3a
 561 0049 0B       		.uleb128 0xb
 562 004a 3B       		.uleb128 0x3b
 563 004b 05       		.uleb128 0x5
 564 004c 49       		.uleb128 0x49
 565 004d 13       		.uleb128 0x13
 566 004e 38       		.uleb128 0x38
 567 004f 0B       		.uleb128 0xb
 568 0050 00       		.byte	0
 569 0051 00       		.byte	0
 570 0052 07       		.uleb128 0x7
 571 0053 0D       		.uleb128 0xd
 572 0054 00       		.byte	0
 573 0055 03       		.uleb128 0x3
 574 0056 0E       		.uleb128 0xe
 575 0057 3A       		.uleb128 0x3a
 576 0058 0B       		.uleb128 0xb
 577 0059 3B       		.uleb128 0x3b
 578 005a 05       		.uleb128 0x5
 579 005b 49       		.uleb128 0x49
 580 005c 13       		.uleb128 0x13
ARM GAS  /tmp/ccNdwYfL.s 			page 12


 581 005d 38       		.uleb128 0x38
 582 005e 05       		.uleb128 0x5
 583 005f 00       		.byte	0
 584 0060 00       		.byte	0
 585 0061 08       		.uleb128 0x8
 586 0062 0D       		.uleb128 0xd
 587 0063 00       		.byte	0
 588 0064 03       		.uleb128 0x3
 589 0065 08       		.uleb128 0x8
 590 0066 3A       		.uleb128 0x3a
 591 0067 0B       		.uleb128 0xb
 592 0068 3B       		.uleb128 0x3b
 593 0069 05       		.uleb128 0x5
 594 006a 49       		.uleb128 0x49
 595 006b 13       		.uleb128 0x13
 596 006c 38       		.uleb128 0x38
 597 006d 05       		.uleb128 0x5
 598 006e 00       		.byte	0
 599 006f 00       		.byte	0
 600 0070 09       		.uleb128 0x9
 601 0071 01       		.uleb128 0x1
 602 0072 01       		.byte	0x1
 603 0073 49       		.uleb128 0x49
 604 0074 13       		.uleb128 0x13
 605 0075 01       		.uleb128 0x1
 606 0076 13       		.uleb128 0x13
 607 0077 00       		.byte	0
 608 0078 00       		.byte	0
 609 0079 0A       		.uleb128 0xa
 610 007a 21       		.uleb128 0x21
 611 007b 00       		.byte	0
 612 007c 49       		.uleb128 0x49
 613 007d 13       		.uleb128 0x13
 614 007e 2F       		.uleb128 0x2f
 615 007f 0B       		.uleb128 0xb
 616 0080 00       		.byte	0
 617 0081 00       		.byte	0
 618 0082 0B       		.uleb128 0xb
 619 0083 35       		.uleb128 0x35
 620 0084 00       		.byte	0
 621 0085 49       		.uleb128 0x49
 622 0086 13       		.uleb128 0x13
 623 0087 00       		.byte	0
 624 0088 00       		.byte	0
 625 0089 0C       		.uleb128 0xc
 626 008a 16       		.uleb128 0x16
 627 008b 00       		.byte	0
 628 008c 03       		.uleb128 0x3
 629 008d 0E       		.uleb128 0xe
 630 008e 3A       		.uleb128 0x3a
 631 008f 0B       		.uleb128 0xb
 632 0090 3B       		.uleb128 0x3b
 633 0091 05       		.uleb128 0x5
 634 0092 49       		.uleb128 0x49
 635 0093 13       		.uleb128 0x13
 636 0094 00       		.byte	0
 637 0095 00       		.byte	0
ARM GAS  /tmp/ccNdwYfL.s 			page 13


 638 0096 0D       		.uleb128 0xd
 639 0097 26       		.uleb128 0x26
 640 0098 00       		.byte	0
 641 0099 49       		.uleb128 0x49
 642 009a 13       		.uleb128 0x13
 643 009b 00       		.byte	0
 644 009c 00       		.byte	0
 645 009d 0E       		.uleb128 0xe
 646 009e 13       		.uleb128 0x13
 647 009f 01       		.byte	0x1
 648 00a0 0B       		.uleb128 0xb
 649 00a1 0B       		.uleb128 0xb
 650 00a2 3A       		.uleb128 0x3a
 651 00a3 0B       		.uleb128 0xb
 652 00a4 3B       		.uleb128 0x3b
 653 00a5 05       		.uleb128 0x5
 654 00a6 01       		.uleb128 0x1
 655 00a7 13       		.uleb128 0x13
 656 00a8 00       		.byte	0
 657 00a9 00       		.byte	0
 658 00aa 0F       		.uleb128 0xf
 659 00ab 0D       		.uleb128 0xd
 660 00ac 00       		.byte	0
 661 00ad 03       		.uleb128 0x3
 662 00ae 08       		.uleb128 0x8
 663 00af 3A       		.uleb128 0x3a
 664 00b0 0B       		.uleb128 0xb
 665 00b1 3B       		.uleb128 0x3b
 666 00b2 05       		.uleb128 0x5
 667 00b3 49       		.uleb128 0x49
 668 00b4 13       		.uleb128 0x13
 669 00b5 38       		.uleb128 0x38
 670 00b6 0B       		.uleb128 0xb
 671 00b7 00       		.byte	0
 672 00b8 00       		.byte	0
 673 00b9 10       		.uleb128 0x10
 674 00ba 2E       		.uleb128 0x2e
 675 00bb 00       		.byte	0
 676 00bc 3F       		.uleb128 0x3f
 677 00bd 19       		.uleb128 0x19
 678 00be 03       		.uleb128 0x3
 679 00bf 0E       		.uleb128 0xe
 680 00c0 3A       		.uleb128 0x3a
 681 00c1 0B       		.uleb128 0xb
 682 00c2 3B       		.uleb128 0x3b
 683 00c3 0B       		.uleb128 0xb
 684 00c4 27       		.uleb128 0x27
 685 00c5 19       		.uleb128 0x19
 686 00c6 11       		.uleb128 0x11
 687 00c7 01       		.uleb128 0x1
 688 00c8 12       		.uleb128 0x12
 689 00c9 06       		.uleb128 0x6
 690 00ca 40       		.uleb128 0x40
 691 00cb 18       		.uleb128 0x18
 692 00cc 9742     		.uleb128 0x2117
 693 00ce 19       		.uleb128 0x19
 694 00cf 00       		.byte	0
ARM GAS  /tmp/ccNdwYfL.s 			page 14


 695 00d0 00       		.byte	0
 696 00d1 11       		.uleb128 0x11
 697 00d2 2E       		.uleb128 0x2e
 698 00d3 00       		.byte	0
 699 00d4 3F       		.uleb128 0x3f
 700 00d5 19       		.uleb128 0x19
 701 00d6 03       		.uleb128 0x3
 702 00d7 0E       		.uleb128 0xe
 703 00d8 3A       		.uleb128 0x3a
 704 00d9 0B       		.uleb128 0xb
 705 00da 3B       		.uleb128 0x3b
 706 00db 0B       		.uleb128 0xb
 707 00dc 49       		.uleb128 0x49
 708 00dd 13       		.uleb128 0x13
 709 00de 11       		.uleb128 0x11
 710 00df 01       		.uleb128 0x1
 711 00e0 12       		.uleb128 0x12
 712 00e1 06       		.uleb128 0x6
 713 00e2 40       		.uleb128 0x40
 714 00e3 18       		.uleb128 0x18
 715 00e4 9742     		.uleb128 0x2117
 716 00e6 19       		.uleb128 0x19
 717 00e7 00       		.byte	0
 718 00e8 00       		.byte	0
 719 00e9 12       		.uleb128 0x12
 720 00ea 34       		.uleb128 0x34
 721 00eb 00       		.byte	0
 722 00ec 03       		.uleb128 0x3
 723 00ed 0E       		.uleb128 0xe
 724 00ee 3A       		.uleb128 0x3a
 725 00ef 0B       		.uleb128 0xb
 726 00f0 3B       		.uleb128 0x3b
 727 00f1 0B       		.uleb128 0xb
 728 00f2 49       		.uleb128 0x49
 729 00f3 13       		.uleb128 0x13
 730 00f4 3F       		.uleb128 0x3f
 731 00f5 19       		.uleb128 0x19
 732 00f6 02       		.uleb128 0x2
 733 00f7 18       		.uleb128 0x18
 734 00f8 00       		.byte	0
 735 00f9 00       		.byte	0
 736 00fa 00       		.byte	0
 737              		.section	.debug_aranges,"",%progbits
 738 0000 1C000000 		.4byte	0x1c
 739 0004 0200     		.2byte	0x2
 740 0006 00000000 		.4byte	.Ldebug_info0
 741 000a 04       		.byte	0x4
 742 000b 00       		.byte	0
 743 000c 0000     		.2byte	0
 744 000e 0000     		.2byte	0
 745 0010 00000000 		.4byte	.Ltext0
 746 0014 60000000 		.4byte	.Letext0-.Ltext0
 747 0018 00000000 		.4byte	0
 748 001c 00000000 		.4byte	0
 749              		.section	.debug_line,"",%progbits
 750              	.Ldebug_line0:
 751 0000 AD000000 		.section	.debug_str,"MS",%progbits,1
ARM GAS  /tmp/ccNdwYfL.s 			page 15


 751      02008000 
 751      00000201 
 751      FB0E0D00 
 751      01010101 
 752              	.LASF17:
 753 0000 49435052 		.ascii	"ICPR\000"
 753      00
 754              	.LASF40:
 755 0005 67657454 		.ascii	"getTicks\000"
 755      69636B73 
 755      00
 756              	.LASF12:
 757 000e 52455345 		.ascii	"RESERVED0\000"
 757      52564544 
 757      3000
 758              	.LASF25:
 759 0018 54464C47 		.ascii	"TFLG\000"
 759      00
 760              	.LASF16:
 761 001d 52455345 		.ascii	"RESERVED2\000"
 761      52564544 
 761      3200
 762              	.LASF13:
 763 0027 49434552 		.ascii	"ICER\000"
 763      00
 764              	.LASF19:
 765 002c 52455345 		.ascii	"RESERVED4\000"
 765      52564544 
 765      3400
 766              	.LASF36:
 767 0036 434C4B44 		.ascii	"CLKDIV\000"
 767      495600
 768              	.LASF28:
 769 003d 5049545F 		.ascii	"PIT_Type\000"
 769      54797065 
 769      00
 770              	.LASF44:
 771 0046 636F756E 		.ascii	"counter\000"
 771      74657200 
 772              	.LASF32:
 773 004e 53434743 		.ascii	"SCGC\000"
 773      00
 774              	.LASF42:
 775 0053 7372632F 		.ascii	"src/pit.c\000"
 775      7069742E 
 775      6300
 776              	.LASF23:
 777 005d 4356414C 		.ascii	"CVAL\000"
 777      00
 778              	.LASF21:
 779 0062 4E564943 		.ascii	"NVIC_Type\000"
 779      5F547970 
 779      6500
 780              	.LASF8:
 781 006c 6C6F6E67 		.ascii	"long unsigned int\000"
 781      20756E73 
 781      69676E65 
ARM GAS  /tmp/ccNdwYfL.s 			page 16


 781      6420696E 
 781      7400
 782              	.LASF29:
 783 007e 53525349 		.ascii	"SRSID\000"
 783      4400
 784              	.LASF5:
 785 0084 73686F72 		.ascii	"short unsigned int\000"
 785      7420756E 
 785      7369676E 
 785      65642069 
 785      6E7400
 786              	.LASF43:
 787 0097 2F686F6D 		.ascii	"/home/xxx/projects/armmke_dev1/firmware\000"
 787      652F7878 
 787      782F7072 
 787      6F6A6563 
 787      74732F61 
 788              	.LASF34:
 789 00bf 55554944 		.ascii	"UUIDH\000"
 789      4800
 790              	.LASF4:
 791 00c5 756E7369 		.ascii	"unsigned char\000"
 791      676E6564 
 791      20636861 
 791      7200
 792              	.LASF33:
 793 00d3 55554944 		.ascii	"UUIDL\000"
 793      4C00
 794              	.LASF38:
 795 00d9 73657475 		.ascii	"setup_PIT\000"
 795      705F5049 
 795      5400
 796              	.LASF37:
 797 00e3 53494D5F 		.ascii	"SIM_Type\000"
 797      54797065 
 797      00
 798              	.LASF39:
 799 00ec 5049545F 		.ascii	"PIT_CH0_IRQHandler\000"
 799      4348305F 
 799      49525148 
 799      616E646C 
 799      657200
 800              	.LASF27:
 801 00ff 4348414E 		.ascii	"CHANNEL\000"
 801      4E454C00 
 802              	.LASF22:
 803 0107 4C445641 		.ascii	"LDVAL\000"
 803      4C00
 804              	.LASF10:
 805 010d 756E7369 		.ascii	"unsigned int\000"
 805      676E6564 
 805      20696E74 
 805      00
 806              	.LASF15:
 807 011a 49535052 		.ascii	"ISPR\000"
 807      00
 808              	.LASF31:
ARM GAS  /tmp/ccNdwYfL.s 			page 17


 809 011f 50494E53 		.ascii	"PINSEL\000"
 809      454C00
 810              	.LASF9:
 811 0126 6C6F6E67 		.ascii	"long long unsigned int\000"
 811      206C6F6E 
 811      6720756E 
 811      7369676E 
 811      65642069 
 812              	.LASF6:
 813 013d 75696E74 		.ascii	"uint8_t\000"
 813      385F7400 
 814              	.LASF41:
 815 0145 474E5520 		.ascii	"GNU C 4.9.3 20150529 (prerelease) -mthumb -mcpu=cor"
 815      4320342E 
 815      392E3320 
 815      32303135 
 815      30353239 
 816 0178 7465782D 		.ascii	"tex-m0plus -g -Os -fno-common -ffreestanding -fno-b"
 816      6D30706C 
 816      7573202D 
 816      67202D4F 
 816      73202D66 
 817 01ab 75696C74 		.ascii	"uiltin\000"
 817      696E00
 818              	.LASF30:
 819 01b2 534F5054 		.ascii	"SOPT\000"
 819      00
 820              	.LASF14:
 821 01b7 52534552 		.ascii	"RSERVED1\000"
 821      56454431 
 821      00
 822              	.LASF20:
 823 01c0 73697A65 		.ascii	"sizetype\000"
 823      74797065 
 823      00
 824              	.LASF3:
 825 01c9 6C6F6E67 		.ascii	"long long int\000"
 825      206C6F6E 
 825      6720696E 
 825      7400
 826              	.LASF24:
 827 01d7 54435452 		.ascii	"TCTRL\000"
 827      4C00
 828              	.LASF11:
 829 01dd 49534552 		.ascii	"ISER\000"
 829      00
 830              	.LASF1:
 831 01e2 73686F72 		.ascii	"short int\000"
 831      7420696E 
 831      7400
 832              	.LASF7:
 833 01ec 75696E74 		.ascii	"uint32_t\000"
 833      33325F74 
 833      00
 834              	.LASF2:
 835 01f5 6C6F6E67 		.ascii	"long int\000"
 835      20696E74 
ARM GAS  /tmp/ccNdwYfL.s 			page 18


 835      00
 836              	.LASF0:
 837 01fe 7369676E 		.ascii	"signed char\000"
 837      65642063 
 837      68617200 
 838              	.LASF26:
 839 020a 52455345 		.ascii	"RESERVED_0\000"
 839      52564544 
 839      5F3000
 840              	.LASF35:
 841 0215 55554944 		.ascii	"UUIDMH\000"
 841      4D4800
 842              	.LASF18:
 843 021c 52455345 		.ascii	"RESERVED3\000"
 843      52564544 
 843      3300
 844              		.ident	"GCC: (15:4.9.3+svn231177-1) 4.9.3 20150529 (prerelease)"
ARM GAS  /tmp/ccNdwYfL.s 			page 19


DEFINED SYMBOLS
                            *ABS*:0000000000000000 pit.c
     /tmp/ccNdwYfL.s:17     .text:0000000000000000 $t
     /tmp/ccNdwYfL.s:22     .text:0000000000000000 setup_PIT
     /tmp/ccNdwYfL.s:64     .text:000000000000002c $d
     /tmp/ccNdwYfL.s:71     .text:000000000000003c $t
     /tmp/ccNdwYfL.s:76     .text:000000000000003c PIT_CH0_IRQHandler
     /tmp/ccNdwYfL.s:97     .text:000000000000004c $d
     /tmp/ccNdwYfL.s:102    .text:0000000000000054 $t
     /tmp/ccNdwYfL.s:107    .text:0000000000000054 getTicks
     /tmp/ccNdwYfL.s:122    .text:000000000000005c $d
     /tmp/ccNdwYfL.s:132    .bss:0000000000000000 counter
     /tmp/ccNdwYfL.s:128    .bss:0000000000000000 $d
                     .debug_frame:0000000000000010 $d

NO UNDEFINED SYMBOLS
