ARM GAS  /tmp/cc5Fg3Gx.s 			page 1


   1              		.cpu cortex-m0plus
   2              		.fpu softvfp
   3              		.eabi_attribute 20, 1
   4              		.eabi_attribute 21, 1
   5              		.eabi_attribute 23, 3
   6              		.eabi_attribute 24, 1
   7              		.eabi_attribute 25, 1
   8              		.eabi_attribute 26, 1
   9              		.eabi_attribute 30, 4
  10              		.eabi_attribute 34, 0
  11              		.eabi_attribute 18, 4
  12              		.code	16
  13              		.file	"uart.c"
  14              		.text
  15              	.Ltext0:
  16              		.cfi_sections	.debug_frame
  17              		.align	1
  18              		.global	push_recv_val
  19              		.code	16
  20              		.thumb_func
  21              		.type	push_recv_val, %function
  22              	push_recv_val:
  23              	.LFB33:
  24              		.file 1 "src/uart.c"
   1:src/uart.c    **** #include "MKE04Z4.h"
   2:src/uart.c    **** #include "uart.h"
   3:src/uart.c    **** #include <stdint.h>
   4:src/uart.c    **** 
   5:src/uart.c    **** volatile uint8_t UART_RECV_BUFF[UART_RECV_BUFF_SIZE];
   6:src/uart.c    **** volatile uint8_t UART_RECV_HEAD_INDEX;
   7:src/uart.c    **** volatile uint8_t UART_RECV_TAIL_INDEX;
   8:src/uart.c    **** volatile uint8_t UART_RECV_HAS_DATA;
   9:src/uart.c    **** 
  10:src/uart.c    **** uint8_t push_recv_val(uint8_t character){
  25              		.loc 1 10 0
  26              		.cfi_startproc
  27              	.LVL0:
  28 0000 10B5     		push	{r4, lr}
  29              		.cfi_def_cfa_offset 8
  30              		.cfi_offset 4, -8
  31              		.cfi_offset 14, -4
  11:src/uart.c    ****   if (UART_RECV_HEAD_INDEX == UART_RECV_TAIL_INDEX && UART_RECV_HAS_DATA == 1){
  32              		.loc 1 11 0
  33 0002 0D4B     		ldr	r3, .L9
  10:src/uart.c    ****   if (UART_RECV_HEAD_INDEX == UART_RECV_TAIL_INDEX && UART_RECV_HAS_DATA == 1){
  34              		.loc 1 10 0
  35 0004 041C     		mov	r4, r0
  36              		.loc 1 11 0
  37 0006 1978     		ldrb	r1, [r3]
  38 0008 5A78     		ldrb	r2, [r3, #1]
  39 000a 9142     		cmp	r1, r2
  40 000c 03D1     		bne	.L2
  41              		.loc 1 11 0 is_stmt 0 discriminator 1
  42 000e 9A78     		ldrb	r2, [r3, #2]
  43 0010 D0B2     		uxtb	r0, r2
  44              	.LVL1:
  45 0012 0128     		cmp	r0, #1
ARM GAS  /tmp/cc5Fg3Gx.s 			page 2


  46 0014 0ED0     		beq	.L3
  47              	.L2:
  12:src/uart.c    ****     return 1; //no capacity
  13:src/uart.c    ****   }
  14:src/uart.c    ****   UART_RECV_HAS_DATA = 1;
  48              		.loc 1 14 0 is_stmt 1
  49 0016 0122     		mov	r2, #1
  50 0018 9A70     		strb	r2, [r3, #2]
  15:src/uart.c    ****   UART_RECV_BUFF[UART_RECV_HEAD_INDEX] = character;
  51              		.loc 1 15 0
  52 001a 1A78     		ldrb	r2, [r3]
  53 001c D91C     		add	r1, r3, #3
  54 001e D2B2     		uxtb	r2, r2
  55 0020 8C54     		strb	r4, [r1, r2]
  16:src/uart.c    ****   UART_RECV_HEAD_INDEX++;
  56              		.loc 1 16 0
  57 0022 1A78     		ldrb	r2, [r3]
  58 0024 0020     		mov	r0, #0
  59 0026 0132     		add	r2, r2, #1
  60 0028 D2B2     		uxtb	r2, r2
  61 002a 1A70     		strb	r2, [r3]
  17:src/uart.c    ****   if (UART_RECV_HEAD_INDEX == UART_RECV_BUFF_SIZE)
  62              		.loc 1 17 0
  63 002c 1A78     		ldrb	r2, [r3]
  64 002e 202A     		cmp	r2, #32
  65 0030 00D1     		bne	.L3
  18:src/uart.c    ****     UART_RECV_HEAD_INDEX = 0;
  66              		.loc 1 18 0
  67 0032 1870     		strb	r0, [r3]
  68              	.L3:
  19:src/uart.c    **** 
  20:src/uart.c    ****   return 0;
  21:src/uart.c    **** }
  69              		.loc 1 21 0
  70              		@ sp needed
  71 0034 10BD     		pop	{r4, pc}
  72              	.L10:
  73 0036 C046     		.align	2
  74              	.L9:
  75 0038 00000000 		.word	.LANCHOR0
  76              		.cfi_endproc
  77              	.LFE33:
  78              		.size	push_recv_val, .-push_recv_val
  79              		.align	1
  80              		.global	availableUART
  81              		.code	16
  82              		.thumb_func
  83              		.type	availableUART, %function
  84              	availableUART:
  85              	.LFB34:
  22:src/uart.c    **** 
  23:src/uart.c    **** uint8_t availableUART(){
  86              		.loc 1 23 0
  87              		.cfi_startproc
  24:src/uart.c    ****   return UART_RECV_HAS_DATA;
  88              		.loc 1 24 0
  89 003c 014B     		ldr	r3, .L12
ARM GAS  /tmp/cc5Fg3Gx.s 			page 3


  25:src/uart.c    **** }
  90              		.loc 1 25 0
  91              		@ sp needed
  24:src/uart.c    ****   return UART_RECV_HAS_DATA;
  92              		.loc 1 24 0
  93 003e 9878     		ldrb	r0, [r3, #2]
  94 0040 C0B2     		uxtb	r0, r0
  95              		.loc 1 25 0
  96 0042 7047     		bx	lr
  97              	.L13:
  98              		.align	2
  99              	.L12:
 100 0044 00000000 		.word	.LANCHOR0
 101              		.cfi_endproc
 102              	.LFE34:
 103              		.size	availableUART, .-availableUART
 104              		.align	1
 105              		.global	readUART
 106              		.code	16
 107              		.thumb_func
 108              		.type	readUART, %function
 109              	readUART:
 110              	.LFB35:
  26:src/uart.c    **** 
  27:src/uart.c    **** uint8_t readUART(){
 111              		.loc 1 27 0
 112              		.cfi_startproc
 113              	.L15:
  28:src/uart.c    ****   while(UART_RECV_HAS_DATA == 0);;
 114              		.loc 1 28 0 discriminator 1
 115 0048 0C4B     		ldr	r3, .L19
 116 004a 9A78     		ldrb	r2, [r3, #2]
 117 004c 002A     		cmp	r2, #0
 118 004e FBD0     		beq	.L15
  29:src/uart.c    ****   uint8_t data = UART_RECV_BUFF[UART_RECV_TAIL_INDEX];
 119              		.loc 1 29 0
 120 0050 5A78     		ldrb	r2, [r3, #1]
 121 0052 D91C     		add	r1, r3, #3
 122 0054 D2B2     		uxtb	r2, r2
 123 0056 885C     		ldrb	r0, [r1, r2]
  30:src/uart.c    ****   UART_RECV_TAIL_INDEX++;
 124              		.loc 1 30 0
 125 0058 5A78     		ldrb	r2, [r3, #1]
  29:src/uart.c    ****   uint8_t data = UART_RECV_BUFF[UART_RECV_TAIL_INDEX];
 126              		.loc 1 29 0
 127 005a C0B2     		uxtb	r0, r0
 128              	.LVL2:
 129              		.loc 1 30 0
 130 005c 0132     		add	r2, r2, #1
 131 005e D2B2     		uxtb	r2, r2
 132 0060 5A70     		strb	r2, [r3, #1]
  31:src/uart.c    ****   if (UART_RECV_TAIL_INDEX == UART_RECV_BUFF_SIZE)
 133              		.loc 1 31 0
 134 0062 5A78     		ldrb	r2, [r3, #1]
 135 0064 202A     		cmp	r2, #32
 136 0066 01D1     		bne	.L16
  32:src/uart.c    ****     UART_RECV_TAIL_INDEX = 0;
ARM GAS  /tmp/cc5Fg3Gx.s 			page 4


 137              		.loc 1 32 0
 138 0068 0022     		mov	r2, #0
 139 006a 5A70     		strb	r2, [r3, #1]
 140              	.L16:
  33:src/uart.c    ****   if (UART_RECV_TAIL_INDEX == UART_RECV_HEAD_INDEX)
 141              		.loc 1 33 0
 142 006c 5978     		ldrb	r1, [r3, #1]
 143 006e 1A78     		ldrb	r2, [r3]
 144 0070 9142     		cmp	r1, r2
 145 0072 01D1     		bne	.L17
  34:src/uart.c    ****     UART_RECV_HAS_DATA = 0;
 146              		.loc 1 34 0
 147 0074 0022     		mov	r2, #0
 148 0076 9A70     		strb	r2, [r3, #2]
 149              	.L17:
  35:src/uart.c    **** 
  36:src/uart.c    ****   return data;
  37:src/uart.c    **** }
 150              		.loc 1 37 0
 151              		@ sp needed
 152 0078 7047     		bx	lr
 153              	.L20:
 154 007a C046     		.align	2
 155              	.L19:
 156 007c 00000000 		.word	.LANCHOR0
 157              		.cfi_endproc
 158              	.LFE35:
 159              		.size	readUART, .-readUART
 160              		.align	1
 161              		.global	writeUART
 162              		.code	16
 163              		.thumb_func
 164              		.type	writeUART, %function
 165              	writeUART:
 166              	.LFB37:
  38:src/uart.c    **** 
  39:src/uart.c    **** void writeUART_str(char* str){
  40:src/uart.c    ****   while(*str != '\0'){
  41:src/uart.c    ****     writeUART(*str);
  42:src/uart.c    ****     str++;
  43:src/uart.c    ****   }
  44:src/uart.c    **** }
  45:src/uart.c    **** 
  46:src/uart.c    **** void writeUART(uint8_t ch){
 167              		.loc 1 46 0
 168              		.cfi_startproc
 169              	.LVL3:
  47:src/uart.c    ****   UART0->D = ch;
 170              		.loc 1 47 0
 171 0080 034B     		ldr	r3, .L23
 172 0082 D871     		strb	r0, [r3, #7]
 173              	.L22:
  48:src/uart.c    ****   while(!(UART0->S1 & UART_S1_TDRE_MASK));
 174              		.loc 1 48 0 discriminator 1
 175 0084 1A79     		ldrb	r2, [r3, #4]
 176 0086 52B2     		sxtb	r2, r2
 177 0088 002A     		cmp	r2, #0
ARM GAS  /tmp/cc5Fg3Gx.s 			page 5


 178 008a FBDA     		bge	.L22
  49:src/uart.c    **** }
 179              		.loc 1 49 0
 180              		@ sp needed
 181 008c 7047     		bx	lr
 182              	.L24:
 183 008e C046     		.align	2
 184              	.L23:
 185 0090 00A00640 		.word	1074176000
 186              		.cfi_endproc
 187              	.LFE37:
 188              		.size	writeUART, .-writeUART
 189              		.align	1
 190              		.global	writeUART_str
 191              		.code	16
 192              		.thumb_func
 193              		.type	writeUART_str, %function
 194              	writeUART_str:
 195              	.LFB36:
  39:src/uart.c    ****   while(*str != '\0'){
 196              		.loc 1 39 0
 197              		.cfi_startproc
 198              	.LVL4:
 199 0094 10B5     		push	{r4, lr}
 200              		.cfi_def_cfa_offset 8
 201              		.cfi_offset 4, -8
 202              		.cfi_offset 14, -4
 203 0096 041C     		mov	r4, r0
 204              	.LVL5:
 205              	.L26:
  40:src/uart.c    ****     writeUART(*str);
 206              		.loc 1 40 0
 207 0098 2078     		ldrb	r0, [r4]
 208 009a 0028     		cmp	r0, #0
 209 009c 03D0     		beq	.L28
 210              	.LBB2:
  41:src/uart.c    ****     str++;
 211              		.loc 1 41 0
 212 009e FFF7FEFF 		bl	writeUART
 213              	.LVL6:
  42:src/uart.c    ****   }
 214              		.loc 1 42 0
 215 00a2 0134     		add	r4, r4, #1
 216              	.LVL7:
 217 00a4 F8E7     		b	.L26
 218              	.L28:
 219              	.LBE2:
  44:src/uart.c    **** 
 220              		.loc 1 44 0
 221              		@ sp needed
 222              	.LVL8:
 223 00a6 10BD     		pop	{r4, pc}
 224              		.cfi_endproc
 225              	.LFE36:
 226              		.size	writeUART_str, .-writeUART_str
 227              		.align	1
 228              		.global	setup_UART
ARM GAS  /tmp/cc5Fg3Gx.s 			page 6


 229              		.code	16
 230              		.thumb_func
 231              		.type	setup_UART, %function
 232              	setup_UART:
 233              	.LFB38:
  50:src/uart.c    **** 
  51:src/uart.c    **** void  setup_UART(){
 234              		.loc 1 51 0
 235              		.cfi_startproc
  52:src/uart.c    ****   //cuz we cant garrantee BSS is set to 0.
  53:src/uart.c    ****   UART_RECV_HEAD_INDEX = 0;
 236              		.loc 1 53 0
 237 00a8 0022     		mov	r2, #0
  54:src/uart.c    ****   UART_RECV_HAS_DATA = 0;
  55:src/uart.c    ****   UART_RECV_TAIL_INDEX = 0;
  56:src/uart.c    **** 
  57:src/uart.c    ****   //Baud rate = Bus Clk / (16 * divider)
  58:src/uart.c    ****   //9615 = 48000000 / (16 * 312)
  59:src/uart.c    ****   //Close enough to 9600
  60:src/uart.c    ****   uint16_t baud_rate_divider_setting = 312;
  61:src/uart.c    **** 
  62:src/uart.c    ****   SIM->SCGC |= SIM_SCGC_UART0_MASK;                          //Enable the clock for the UART Periph
 238              		.loc 1 62 0
 239 00aa 8021     		mov	r1, #128
  53:src/uart.c    ****   UART_RECV_HAS_DATA = 0;
 240              		.loc 1 53 0
 241 00ac 0C4B     		ldr	r3, .L30
 242              		.loc 1 62 0
 243 00ae 4903     		lsl	r1, r1, #13
  53:src/uart.c    ****   UART_RECV_HAS_DATA = 0;
 244              		.loc 1 53 0
 245 00b0 1A70     		strb	r2, [r3]
  54:src/uart.c    ****   UART_RECV_HAS_DATA = 0;
 246              		.loc 1 54 0
 247 00b2 9A70     		strb	r2, [r3, #2]
  55:src/uart.c    **** 
 248              		.loc 1 55 0
 249 00b4 5A70     		strb	r2, [r3, #1]
 250              	.LVL9:
 251              		.loc 1 62 0
 252 00b6 0B4A     		ldr	r2, .L30+4
  63:src/uart.c    **** 
  64:src/uart.c    ****   UART0->BDH = UART_BDH_SBR(baud_rate_divider_setting >> 8);
  65:src/uart.c    ****   UART0->BDL = UART_BDL_SBR(baud_rate_divider_setting);      //Set the bottom bits for the baud rat
  66:src/uart.c    **** 
  67:src/uart.c    ****   //Enable RI (Recieve int)
  68:src/uart.c    ****   //Transmitter Enable (TE) & Reciever Enable (RE)
  69:src/uart.c    ****   //Recieve interrupt fires when Recieve Data Register Full (RDRF) flag is set.
  70:src/uart.c    ****   UART0->C2 =  UART_C2_RIE_MASK | UART_C2_RE_MASK;
  71:src/uart.c    **** 
  72:src/uart.c    ****   UART0->C2 |=  UART_C2_TE_MASK;
  73:src/uart.c    **** 
  74:src/uart.c    ****   //Unmask interrupts on UART0 vector.
  75:src/uart.c    ****   NVIC->ISER[0] = 1 << 12;
  76:src/uart.c    **** 
  77:src/uart.c    **** }
 253              		.loc 1 77 0
ARM GAS  /tmp/cc5Fg3Gx.s 			page 7


 254              		@ sp needed
  62:src/uart.c    **** 
 255              		.loc 1 62 0
 256 00b8 D368     		ldr	r3, [r2, #12]
 257 00ba 0B43     		orr	r3, r1
 258 00bc D360     		str	r3, [r2, #12]
  64:src/uart.c    ****   UART0->BDL = UART_BDL_SBR(baud_rate_divider_setting);      //Set the bottom bits for the baud rat
 259              		.loc 1 64 0
 260 00be 0122     		mov	r2, #1
  72:src/uart.c    **** 
 261              		.loc 1 72 0
 262 00c0 0821     		mov	r1, #8
  64:src/uart.c    ****   UART0->BDL = UART_BDL_SBR(baud_rate_divider_setting);      //Set the bottom bits for the baud rat
 263              		.loc 1 64 0
 264 00c2 094B     		ldr	r3, .L30+8
 265 00c4 1A70     		strb	r2, [r3]
  65:src/uart.c    **** 
 266              		.loc 1 65 0
 267 00c6 3732     		add	r2, r2, #55
 268 00c8 5A70     		strb	r2, [r3, #1]
  70:src/uart.c    **** 
 269              		.loc 1 70 0
 270 00ca 143A     		sub	r2, r2, #20
 271 00cc DA70     		strb	r2, [r3, #3]
  72:src/uart.c    **** 
 272              		.loc 1 72 0
 273 00ce DA78     		ldrb	r2, [r3, #3]
 274 00d0 0A43     		orr	r2, r1
 275 00d2 DA70     		strb	r2, [r3, #3]
  75:src/uart.c    **** 
 276              		.loc 1 75 0
 277 00d4 8022     		mov	r2, #128
 278 00d6 054B     		ldr	r3, .L30+12
 279 00d8 5201     		lsl	r2, r2, #5
 280 00da 1A60     		str	r2, [r3]
 281              		.loc 1 77 0
 282 00dc 7047     		bx	lr
 283              	.L31:
 284 00de C046     		.align	2
 285              	.L30:
 286 00e0 00000000 		.word	.LANCHOR0
 287 00e4 00800440 		.word	1074036736
 288 00e8 00A00640 		.word	1074176000
 289 00ec 00E100E0 		.word	-536813312
 290              		.cfi_endproc
 291              	.LFE38:
 292              		.size	setup_UART, .-setup_UART
 293              		.align	1
 294              		.global	UART0_IRQHandler
 295              		.code	16
 296              		.thumb_func
 297              		.type	UART0_IRQHandler, %function
 298              	UART0_IRQHandler:
 299              	.LFB39:
  78:src/uart.c    **** 
  79:src/uart.c    **** // Called when UART0 interrupt fires.
  80:src/uart.c    **** void UART0_IRQHandler(void)
ARM GAS  /tmp/cc5Fg3Gx.s 			page 8


  81:src/uart.c    **** {
 300              		.loc 1 81 0
 301              		.cfi_startproc
 302 00f0 08B5     		push	{r3, lr}
 303              		.cfi_def_cfa_offset 8
 304              		.cfi_offset 3, -8
 305              		.cfi_offset 14, -4
  82:src/uart.c    ****   if((UART0->S1 & UART_S1_RDRF_MASK) == UART_S1_RDRF_MASK){ //Recieved byte
 306              		.loc 1 82 0
 307 00f2 044B     		ldr	r3, .L37
 308 00f4 1A79     		ldrb	r2, [r3, #4]
 309 00f6 9206     		lsl	r2, r2, #26
 310 00f8 03D5     		bpl	.L32
  83:src/uart.c    ****     push_recv_val(UART0->D);
 311              		.loc 1 83 0
 312 00fa D879     		ldrb	r0, [r3, #7]
 313 00fc C0B2     		uxtb	r0, r0
 314 00fe FFF7FEFF 		bl	push_recv_val
 315              	.LVL10:
 316              	.L32:
  84:src/uart.c    ****   }
  85:src/uart.c    **** }
 317              		.loc 1 85 0
 318              		@ sp needed
 319 0102 08BD     		pop	{r3, pc}
 320              	.L38:
 321              		.align	2
 322              	.L37:
 323 0104 00A00640 		.word	1074176000
 324              		.cfi_endproc
 325              	.LFE39:
 326              		.size	UART0_IRQHandler, .-UART0_IRQHandler
 327              		.global	UART_RECV_HAS_DATA
 328              		.global	UART_RECV_TAIL_INDEX
 329              		.global	UART_RECV_HEAD_INDEX
 330              		.global	UART_RECV_BUFF
 331              		.bss
 332              		.set	.LANCHOR0,. + 0
 333              		.type	UART_RECV_HEAD_INDEX, %object
 334              		.size	UART_RECV_HEAD_INDEX, 1
 335              	UART_RECV_HEAD_INDEX:
 336 0000 00       		.space	1
 337              		.type	UART_RECV_TAIL_INDEX, %object
 338              		.size	UART_RECV_TAIL_INDEX, 1
 339              	UART_RECV_TAIL_INDEX:
 340 0001 00       		.space	1
 341              		.type	UART_RECV_HAS_DATA, %object
 342              		.size	UART_RECV_HAS_DATA, 1
 343              	UART_RECV_HAS_DATA:
 344 0002 00       		.space	1
 345              		.type	UART_RECV_BUFF, %object
 346              		.size	UART_RECV_BUFF, 32
 347              	UART_RECV_BUFF:
 348 0003 00000000 		.space	32
 348      00000000 
 348      00000000 
 348      00000000 
ARM GAS  /tmp/cc5Fg3Gx.s 			page 9


 348      00000000 
 349              		.text
 350              	.Letext0:
 351              		.file 2 "/usr/lib/gcc/arm-none-eabi/4.9.3/include/stdint-gcc.h"
 352              		.file 3 "include/core_cm0plus.h"
 353              		.file 4 "include/MKE04Z4.h"